---
triple:          'arm64-apple-darwin'
binary-path:     '/Users/tirthshah/Documents/PDEU-Sem-5/Lab/System Software and Compiler Design/Lect5/LL1'
relocations:
  - { offsetInCU: 0x4A51, offset: 0x4A51, size: 0x8, addend: 0x0, symName: __ZNSt3__17advanceB8ue170006INS_21__tree_const_iteratorIcPNS_11__tree_nodeIcPvEElEEllvEEvRT_T0_, symObjAddr: 0x29B4, symBinAddr: 0x100003A30, symSize: 0x38 }
  - { offsetInCU: 0x63B2, offset: 0x63B2, size: 0x8, addend: 0x0, symName: __ZNSt3__124__put_character_sequenceB8ue170006IcNS_11char_traitsIcEEEERNS_13basic_ostreamIT_T0_EES7_PKS4_m, symObjAddr: 0x4020, symBinAddr: 0x10000509C, symSize: 0x1F4 }
  - { offsetInCU: 0xA77C, offset: 0xA77C, size: 0x8, addend: 0x0, symName: __ZNSt3__17advanceB8ue170006INS_21__tree_const_iteratorINS_12__value_typeIcNS_3setIcNS_4lessIcEENS_9allocatorIcEEEEEEPNS_11__tree_nodeIS9_PvEElEEllvEEvRT_T0_, symObjAddr: 0x8704, symBinAddr: 0x100009780, symSize: 0x38 }
  - { offsetInCU: 0xB820, offset: 0xB820, size: 0x8, addend: 0x0, symName: __ZNSt3__1neB8ue170006IP4RuleEEbRKNS_11__wrap_iterIT_EES7_, symObjAddr: 0x4D4, symBinAddr: 0x100001550, symSize: 0x34 }
  - { offsetInCU: 0xB863, offset: 0xB863, size: 0x8, addend: 0x0, symName: __ZNSt3__1lsB8ue170006IcNS_11char_traitsIcEENS_9allocatorIcEEEERNS_13basic_ostreamIT_T0_EES9_RKNS_12basic_stringIS6_S7_T1_EE, symObjAddr: 0x554, symBinAddr: 0x1000015D0, symSize: 0x4C }
  - { offsetInCU: 0xB8BB, offset: 0xB8BB, size: 0x8, addend: 0x0, symName: __ZNSt3__1lsB8ue170006INS_11char_traitsIcEEEERNS_13basic_ostreamIcT_EES6_PKc, symObjAddr: 0x5A0, symBinAddr: 0x10000161C, symSize: 0x48 }
  - { offsetInCU: 0xB901, offset: 0xB901, size: 0x8, addend: 0x0, symName: __ZNSt3__1lsB8ue170006INS_11char_traitsIcEEEERNS_13basic_ostreamIcT_EES6_c, symObjAddr: 0x5E8, symBinAddr: 0x100001664, symSize: 0x34 }
  - { offsetInCU: 0xB947, offset: 0xB947, size: 0x8, addend: 0x0, symName: __ZNSt3__14endlB8ue170006IcNS_11char_traitsIcEEEERNS_13basic_ostreamIT_T0_EES7_, symObjAddr: 0x648, symBinAddr: 0x1000016C4, symSize: 0x58 }
  - { offsetInCU: 0xB987, offset: 0xB987, size: 0x8, addend: 0x0, symName: __ZNSt3__1neB8ue170006ERKNS_21__tree_const_iteratorIcPNS_11__tree_nodeIcPvEElEES7_, symObjAddr: 0x8D0, symBinAddr: 0x10000194C, symSize: 0x34 }
  - { offsetInCU: 0xB9C4, offset: 0xB9C4, size: 0x8, addend: 0x0, symName: __ZNSt3__1neB8ue170006ERKNS_14__map_iteratorINS_15__tree_iteratorINS_12__value_typeIcNS_3setIcNS_4lessIcEENS_9allocatorIcEEEEEEPNS_11__tree_nodeIS9_PvEElEEEESH_, symObjAddr: 0xD88, symBinAddr: 0x100001E04, symSize: 0x30 }
  - { offsetInCU: 0xBA34, offset: 0xBA34, size: 0x8, addend: 0x0, symName: __ZNSt3__1eqB8ue170006ERKNS_21__tree_const_iteratorIcPNS_11__tree_nodeIcPvEElEES7_, symObjAddr: 0x23E4, symBinAddr: 0x100003460, symSize: 0x30 }
  - { offsetInCU: 0xBA71, offset: 0xBA71, size: 0x8, addend: 0x0, symName: __ZNSt3__14nextB8ue170006INS_21__tree_const_iteratorIcPNS_11__tree_nodeIcPvEElEEEENS_9enable_ifIXsr29__has_input_iterator_categoryIT_EE5valueES8_E4typeES8_NS_15iterator_traitsIS8_E15difference_typeE, symObjAddr: 0x26C8, symBinAddr: 0x100003744, symSize: 0x3C }
  - { offsetInCU: 0xBAB4, offset: 0xBAB4, size: 0x8, addend: 0x0, symName: __ZNSt3__116__tree_prev_iterB8ue170006IPNS_16__tree_node_baseIPvEEPNS_15__tree_end_nodeIS4_EEEET_T0_, symObjAddr: 0x27C8, symBinAddr: 0x100003844, symSize: 0xB8 }
  - { offsetInCU: 0xBB00, offset: 0xBB00, size: 0x8, addend: 0x0, symName: __ZNSt3__110__tree_maxB8ue170006IPNS_16__tree_node_baseIPvEEEET_S5_, symObjAddr: 0x2880, symBinAddr: 0x1000038FC, symSize: 0x40 }
  - { offsetInCU: 0xBB35, offset: 0xBB35, size: 0x8, addend: 0x0, symName: __ZNSt3__120__tree_is_left_childB8ue170006IPNS_16__tree_node_baseIPvEEEEbT_, symObjAddr: 0x28C0, symBinAddr: 0x10000393C, symSize: 0x2C }
  - { offsetInCU: 0xBB6A, offset: 0xBB6A, size: 0x8, addend: 0x0, symName: __ZNSt3__121__convert_to_integralB8ue170006El, symObjAddr: 0x29EC, symBinAddr: 0x100003A68, symSize: 0x14 }
  - { offsetInCU: 0xBB96, offset: 0xBB96, size: 0x8, addend: 0x0, symName: __ZNSt3__19__advanceB8ue170006INS_21__tree_const_iteratorIcPNS_11__tree_nodeIcPvEElEEEEvRT_NS_15iterator_traitsIS7_E15difference_typeENS_26bidirectional_iterator_tagE, symObjAddr: 0x2A00, symBinAddr: 0x100003A7C, symSize: 0xA4 }
  - { offsetInCU: 0xBBFD, offset: 0xBBFD, size: 0x8, addend: 0x0, symName: __ZNSt3__130__libcpp_is_constant_evaluatedB8ue170006Ev, symObjAddr: 0x2D24, symBinAddr: 0x100003DA0, symSize: 0xC }
  - { offsetInCU: 0xBC1A, offset: 0xBC1A, size: 0x8, addend: 0x0, symName: __ZNSt3__117__libcpp_allocateB8ue170006Emm, symObjAddr: 0x2D30, symBinAddr: 0x100003DAC, symSize: 0x28 }
  - { offsetInCU: 0xBC57, offset: 0xBC57, size: 0x8, addend: 0x0, symName: __ZNSt3__121__libcpp_operator_newB8ue170006IJmEEEPvDpT_, symObjAddr: 0x2D6C, symBinAddr: 0x100003DE8, symSize: 0x24 }
  - { offsetInCU: 0xBC90, offset: 0xBC90, size: 0x8, addend: 0x0, symName: __ZNSt3__127__tree_balance_after_insertB8ue170006IPNS_16__tree_node_baseIPvEEEEvT_S5_, symObjAddr: 0x2F8C, symBinAddr: 0x100004008, symSize: 0x27C }
  - { offsetInCU: 0xBD0C, offset: 0xBD0C, size: 0x8, addend: 0x0, symName: __ZNSt3__118__tree_left_rotateB8ue170006IPNS_16__tree_node_baseIPvEEEEvT_, symObjAddr: 0x3230, symBinAddr: 0x1000042AC, symSize: 0xEC }
  - { offsetInCU: 0xBD4E, offset: 0xBD4E, size: 0x8, addend: 0x0, symName: __ZNSt3__119__tree_right_rotateB8ue170006IPNS_16__tree_node_baseIPvEEEEvT_, symObjAddr: 0x331C, symBinAddr: 0x100004398, symSize: 0xCC }
  - { offsetInCU: 0xBD90, offset: 0xBD90, size: 0x8, addend: 0x0, symName: __ZNSt3__119__libcpp_deallocateB8ue170006EPvmm, symObjAddr: 0x367C, symBinAddr: 0x1000046F8, symSize: 0x30 }
  - { offsetInCU: 0xBDD8, offset: 0xBDD8, size: 0x8, addend: 0x0, symName: __ZNSt3__127__do_deallocate_handle_sizeB8ue170006IJEEEvPvmDpT_, symObjAddr: 0x36AC, symBinAddr: 0x100004728, symSize: 0x28 }
  - { offsetInCU: 0xBE16, offset: 0xBE16, size: 0x8, addend: 0x0, symName: __ZNSt3__124__libcpp_operator_deleteB8ue170006IJPvEEEvDpT_, symObjAddr: 0x36D4, symBinAddr: 0x100004750, symSize: 0x24 }
  - { offsetInCU: 0xBE4B, offset: 0xBE4B, size: 0x8, addend: 0x0, symName: __ZNSt3__1eqB8ue170006IP4RuleEEbRKNS_11__wrap_iterIT_EES7_, symObjAddr: 0x3FC0, symBinAddr: 0x10000503C, symSize: 0x48 }
  - { offsetInCU: 0xBE8E, offset: 0xBE8E, size: 0x8, addend: 0x0, symName: __ZNSt3__116__pad_and_outputB8ue170006IcNS_11char_traitsIcEEEENS_19ostreambuf_iteratorIT_T0_EES6_PKS4_S8_S8_RNS_8ios_baseES4_, symObjAddr: 0x4278, symBinAddr: 0x1000052F4, symSize: 0x248 }
  - { offsetInCU: 0xBF5D, offset: 0xBF5D, size: 0x8, addend: 0x0, symName: __ZNSt3__112__to_addressB8ue170006IKcEEPT_S3_, symObjAddr: 0x46F0, symBinAddr: 0x10000576C, symSize: 0x14 }
  - { offsetInCU: 0xBFC5, offset: 0xBFC5, size: 0x8, addend: 0x0, symName: __ZNSt3__19use_facetB8ue170006INS_5ctypeIcEEEERKT_RKNS_6localeE, symObjAddr: 0x49C8, symBinAddr: 0x100005A44, symSize: 0x2C }
  - { offsetInCU: 0xC492, offset: 0xC492, size: 0x8, addend: 0x0, symName: __ZNSt3__118__constexpr_strlenB8ue170006EPKc, symObjAddr: 0x4A60, symBinAddr: 0x100005ADC, symSize: 0x24 }
  - { offsetInCU: 0xC50F, offset: 0xC50F, size: 0x8, addend: 0x0, symName: __ZNSt3__116__tree_next_iterB8ue170006IPNS_15__tree_end_nodeIPNS_16__tree_node_baseIPvEEEES5_EET_T0_, symObjAddr: 0x5D28, symBinAddr: 0x100006DA4, symSize: 0x80 }
  - { offsetInCU: 0xC54D, offset: 0xC54D, size: 0x8, addend: 0x0, symName: __ZNSt3__110__tree_minB8ue170006IPNS_16__tree_node_baseIPvEEEET_S5_, symObjAddr: 0x5DA8, symBinAddr: 0x100006E24, symSize: 0x40 }
  - { offsetInCU: 0xC582, offset: 0xC582, size: 0x8, addend: 0x0, symName: __ZNSt3__122__make_exception_guardB8ue170006INS_6vectorI4RuleNS_9allocatorIS2_EEE16__destroy_vectorEEENS_28__exception_guard_exceptionsIT_EES8_, symObjAddr: 0x64AC, symBinAddr: 0x100007528, symSize: 0x40 }
  - { offsetInCU: 0xC5B7, offset: 0xC5B7, size: 0x8, addend: 0x0, symName: __ZNSt3__119__allocate_at_leastB8ue170006INS_9allocatorI4RuleEEEENS_19__allocation_resultINS_16allocator_traitsIT_E7pointerEEERS6_m, symObjAddr: 0x67B0, symBinAddr: 0x10000782C, symSize: 0x40 }
  - { offsetInCU: 0xC5FA, offset: 0xC5FA, size: 0x8, addend: 0x0, symName: __ZNSt3__13minB8ue170006ImEERKT_S3_S3_, symObjAddr: 0x68EC, symBinAddr: 0x100007968, symSize: 0x2C }
  - { offsetInCU: 0xC83E, offset: 0xC83E, size: 0x8, addend: 0x0, symName: __ZNSt3__13minB8ue170006ImNS_6__lessIvvEEEERKT_S5_S5_T0_, symObjAddr: 0x6950, symBinAddr: 0x1000079CC, symSize: 0x54 }
  - { offsetInCU: 0xC8DD, offset: 0xC8DD, size: 0x8, addend: 0x0, symName: __ZNSt3__120__throw_length_errorB8ue170006EPKc, symObjAddr: 0x69F4, symBinAddr: 0x100007A70, symSize: 0x64 }
  - { offsetInCU: 0xC907, offset: 0xC907, size: 0x8, addend: 0x0, symName: __ZNSt3__112__to_addressB8ue170006I4RuleEEPT_S3_, symObjAddr: 0x6C54, symBinAddr: 0x100007CD0, symSize: 0x14 }
  - { offsetInCU: 0xC93C, offset: 0xC93C, size: 0x8, addend: 0x0, symName: __ZNSt3__130__uninitialized_allocator_copyB8ue170006INS_9allocatorI4RuleEEPS2_S4_S4_EET2_RT_T0_T1_S5_, symObjAddr: 0x6D04, symBinAddr: 0x100007D80, symSize: 0x80 }
  - { offsetInCU: 0xC9D9, offset: 0xC9D9, size: 0x8, addend: 0x0, symName: __ZNSt3__114__unwrap_rangeB8ue170006IP4RuleS2_EENS_4pairIT0_S4_EET_S6_, symObjAddr: 0x6DF4, symBinAddr: 0x100007E70, symSize: 0x60 }
  - { offsetInCU: 0xCA25, offset: 0xCA25, size: 0x8, addend: 0x0, symName: __ZNSt3__135__uninitialized_allocator_copy_implB8ue170006INS_9allocatorI4RuleEEPS2_S4_S4_EET2_RT_T0_T1_S5_, symObjAddr: 0x6E54, symBinAddr: 0x100007ED0, symSize: 0xFC }
  - { offsetInCU: 0xCAC3, offset: 0xCAC3, size: 0x8, addend: 0x0, symName: __ZNSt3__113__unwrap_iterB8ue170006IP4RuleNS_18__unwrap_iter_implIS2_Lb1EEELi0EEEDTclsrT0_8__unwrapclsr3stdE7declvalIT_EEEES6_, symObjAddr: 0x6F50, symBinAddr: 0x100007FCC, symSize: 0x24 }
  - { offsetInCU: 0xCB07, offset: 0xCB07, size: 0x8, addend: 0x0, symName: __ZNSt3__113__rewrap_iterB8ue170006IP4RuleS2_NS_18__unwrap_iter_implIS2_Lb1EEEEET_S5_T0_, symObjAddr: 0x6F74, symBinAddr: 0x100007FF0, symSize: 0x50 }
  - { offsetInCU: 0xCB5C, offset: 0xCB5C, size: 0x8, addend: 0x0, symName: __ZNSt3__19make_pairB8ue170006IP4RuleS2_EENS_4pairINS_18__unwrap_ref_decayIT_E4typeENS4_IT0_E4typeEEEOS5_OS8_, symObjAddr: 0x6FC4, symBinAddr: 0x100008040, symSize: 0x38 }
  - { offsetInCU: 0xCC58, offset: 0xCC58, size: 0x8, addend: 0x0, symName: __ZNSt3__122__make_exception_guardB8ue170006INS_29_AllocatorDestroyRangeReverseINS_9allocatorI4RuleEEPS3_EEEENS_28__exception_guard_exceptionsIT_EES8_, symObjAddr: 0x706C, symBinAddr: 0x1000080E8, symSize: 0x4C }
  - { offsetInCU: 0xCC8E, offset: 0xCC8E, size: 0x8, addend: 0x0, symName: __ZNSt3__119__allocator_destroyB8ue170006INS_9allocatorI4RuleEENS_16reverse_iteratorIPS2_EES6_EEvRT_T0_T1_, symObjAddr: 0x72F4, symBinAddr: 0x100008370, symSize: 0x70 }
  - { offsetInCU: 0xCCF1, offset: 0xCCF1, size: 0x8, addend: 0x0, symName: __ZNSt3__1neB8ue170006IP4RuleS2_EEbRKNS_16reverse_iteratorIT_EERKNS3_IT0_EE, symObjAddr: 0x7398, symBinAddr: 0x100008414, symSize: 0x48 }
  - { offsetInCU: 0xCD3D, offset: 0xCD3D, size: 0x8, addend: 0x0, symName: __ZNSt3__112__to_addressB8ue170006INS_16reverse_iteratorIP4RuleEEvEEu7__decayIDTclsr19__to_address_helperIT_EE6__callclsr3stdE7declvalIRKS5_EEEEES7_, symObjAddr: 0x740C, symBinAddr: 0x100008488, symSize: 0x24 }
  - { offsetInCU: 0xCDEF, offset: 0xCDEF, size: 0x8, addend: 0x0, symName: __ZNSt3__1neB8ue170006ERKNS_20__map_const_iteratorINS_21__tree_const_iteratorINS_12__value_typeIcNS_3setIcNS_4lessIcEENS_9allocatorIcEEEEEEPNS_11__tree_nodeIS9_PvEElEEEESH_, symObjAddr: 0x7D08, symBinAddr: 0x100008D84, symSize: 0x30 }
  - { offsetInCU: 0xCE2C, offset: 0xCE2C, size: 0x8, addend: 0x0, symName: __ZNSt3__1neB8ue170006ERKNS_21__tree_const_iteratorINS_12__value_typeIcNS_3setIcNS_4lessIcEENS_9allocatorIcEEEEEEPNS_11__tree_nodeIS8_PvEElEESF_, symObjAddr: 0x7E10, symBinAddr: 0x100008E8C, symSize: 0x34 }
  - { offsetInCU: 0xCE69, offset: 0xCE69, size: 0x8, addend: 0x0, symName: __ZNSt3__1eqB8ue170006ERKNS_21__tree_const_iteratorINS_12__value_typeIcNS_3setIcNS_4lessIcEENS_9allocatorIcEEEEEEPNS_11__tree_nodeIS8_PvEElEESF_, symObjAddr: 0x7E44, symBinAddr: 0x100008EC0, symSize: 0x30 }
  - { offsetInCU: 0xCECA, offset: 0xCECA, size: 0x8, addend: 0x0, symName: __ZNSt3__14nextB8ue170006INS_21__tree_const_iteratorINS_12__value_typeIcNS_3setIcNS_4lessIcEENS_9allocatorIcEEEEEEPNS_11__tree_nodeIS9_PvEElEEEENS_9enable_ifIXsr29__has_input_iterator_categoryIT_EE5valueESG_E4typeESG_NS_15iterator_traitsISG_E15difference_typeE, symObjAddr: 0x863C, symBinAddr: 0x1000096B8, symSize: 0x3C }
  - { offsetInCU: 0xCF0D, offset: 0xCF0D, size: 0x8, addend: 0x0, symName: __ZNSt3__19__advanceB8ue170006INS_21__tree_const_iteratorINS_12__value_typeIcNS_3setIcNS_4lessIcEENS_9allocatorIcEEEEEEPNS_11__tree_nodeIS9_PvEElEEEEvRT_NS_15iterator_traitsISF_E15difference_typeENS_26bidirectional_iterator_tagE, symObjAddr: 0x873C, symBinAddr: 0x1000097B8, symSize: 0xA4 }
  - { offsetInCU: 0xCFA7, offset: 0xCFA7, size: 0x8, addend: 0x0, symName: __ZNSt3__1neB8ue170006ERKNS_15__tree_iteratorINS_12__value_typeIcNS_3setIcNS_4lessIcEENS_9allocatorIcEEEEEEPNS_11__tree_nodeIS8_PvEElEESF_, symObjAddr: 0x8E00, symBinAddr: 0x100009E7C, symSize: 0x34 }
  - { offsetInCU: 0xCFE4, offset: 0xCFE4, size: 0x8, addend: 0x0, symName: __ZNSt3__1eqB8ue170006ERKNS_15__tree_iteratorINS_12__value_typeIcNS_3setIcNS_4lessIcEENS_9allocatorIcEEEEEEPNS_11__tree_nodeIS8_PvEElEESF_, symObjAddr: 0x8E34, symBinAddr: 0x100009EB0, symSize: 0x30 }
  - { offsetInCU: 0xD054, offset: 0xD054, size: 0x8, addend: 0x0, symName: __ZNSt3__13maxB8ue170006ImEERKT_S3_S3_, symObjAddr: 0x9488, symBinAddr: 0x10000A504, symSize: 0x2C }
  - { offsetInCU: 0xD097, offset: 0xD097, size: 0x8, addend: 0x0, symName: __ZNSt3__13maxB8ue170006ImNS_6__lessIvvEEEERKT_S5_S5_T0_, symObjAddr: 0x94B4, symBinAddr: 0x10000A530, symSize: 0x54 }
  - { offsetInCU: 0xD0F1, offset: 0xD0F1, size: 0x8, addend: 0x0, symName: __ZNSt3__142__uninitialized_allocator_move_if_noexceptB8ue170006INS_9allocatorI4RuleEENS_16reverse_iteratorIPS2_EES6_S6_EET2_RT_T0_T1_S7_, symObjAddr: 0x9734, symBinAddr: 0x10000A7B0, symSize: 0x124 }
  - { offsetInCU: 0xD191, offset: 0xD191, size: 0x8, addend: 0x0, symName: __ZNSt3__14swapB8ue170006IP4RuleEEvRT_S4_, symObjAddr: 0x9858, symBinAddr: 0x10000A8D4, symSize: 0x3C }
  - { offsetInCU: 0xD1E2, offset: 0xD1E2, size: 0x8, addend: 0x0, symName: __ZNSt3__122__make_exception_guardB8ue170006INS_29_AllocatorDestroyRangeReverseINS_9allocatorI4RuleEENS_16reverse_iteratorIPS3_EEEEEENS_28__exception_guard_exceptionsIT_EESA_, symObjAddr: 0x9894, symBinAddr: 0x10000A910, symSize: 0x4C }
  - { offsetInCU: 0xD218, offset: 0xD218, size: 0x8, addend: 0x0, symName: __ZNSt3__119__allocator_destroyB8ue170006INS_9allocatorI4RuleEENS_16reverse_iteratorINS4_IPS2_EEEES7_EEvRT_T0_T1_, symObjAddr: 0x9B68, symBinAddr: 0x10000ABE4, symSize: 0x70 }
  - { offsetInCU: 0xD27D, offset: 0xD27D, size: 0x8, addend: 0x0, symName: __ZNSt3__1neB8ue170006INS_16reverse_iteratorIP4RuleEES4_EEbRKNS1_IT_EERKNS1_IT0_EE, symObjAddr: 0x9C14, symBinAddr: 0x10000AC90, symSize: 0x60 }
  - { offsetInCU: 0xD2C9, offset: 0xD2C9, size: 0x8, addend: 0x0, symName: __ZNSt3__112__to_addressB8ue170006INS_16reverse_iteratorINS1_IP4RuleEEEEvEEu7__decayIDTclsr19__to_address_helperIT_EE6__callclsr3stdE7declvalIRKS6_EEEEES8_, symObjAddr: 0x9C74, symBinAddr: 0x10000ACF0, symSize: 0x24 }
  - { offsetInCU: 0xD51D, offset: 0xD51D, size: 0x8, addend: 0x0, symName: __ZSt28__throw_bad_array_new_lengthB8ue170006v, symObjAddr: 0x2CF0, symBinAddr: 0x100003D6C, symSize: 0x34 }
  - { offsetInCU: 0xE277, offset: 0xE277, size: 0x8, addend: 0x0, symName: __ZNSt3__16vectorI4RuleNS_9allocatorIS1_EEE26__swap_out_circular_bufferERNS_14__split_bufferIS1_RS3_EE, symObjAddr: 0x934C, symBinAddr: 0x10000A3C8, symSize: 0x110 }
  - { offsetInCU: 0xEAFB, offset: 0xEAFB, size: 0x8, addend: 0x0, symName: __Z7isloweri, symObjAddr: 0x7E4, symBinAddr: 0x100001860, symSize: 0x28 }
  - { offsetInCU: 0x1062A, offset: 0x1062A, size: 0x8, addend: 0x0, symName: __Z8firstSetNSt3__16vectorI4RuleNS_9allocatorIS1_EEEERNS_3mapIcNS_3setIcNS_4lessIcEENS2_IcEEEES8_NS2_INS_4pairIKcSA_EEEEEE, symObjAddr: 0x0, symBinAddr: 0x10000107C, symSize: 0x474 }
  - { offsetInCU: 0x1073A, offset: 0x1073A, size: 0x8, addend: 0x0, symName: __ZNSt3__16vectorI4RuleNS_9allocatorIS1_EEE5beginB8ue170006Ev, symObjAddr: 0x474, symBinAddr: 0x1000014F0, symSize: 0x30 }
  - { offsetInCU: 0x10760, offset: 0x10760, size: 0x8, addend: 0x0, symName: __ZNSt3__16vectorI4RuleNS_9allocatorIS1_EEE3endB8ue170006Ev, symObjAddr: 0x4A4, symBinAddr: 0x100001520, symSize: 0x30 }
  - { offsetInCU: 0x10786, offset: 0x10786, size: 0x8, addend: 0x0, symName: __ZNKSt3__111__wrap_iterIP4RuleEdeB8ue170006Ev, symObjAddr: 0x508, symBinAddr: 0x100001584, symSize: 0x18 }
  - { offsetInCU: 0x107AB, offset: 0x107AB, size: 0x8, addend: 0x0, symName: __ZN4RuleC1ERKS_, symObjAddr: 0x520, symBinAddr: 0x10000159C, symSize: 0x34 }
  - { offsetInCU: 0x107DF, offset: 0x107DF, size: 0x8, addend: 0x0, symName: __ZNSt3__113basic_ostreamIcNS_11char_traitsIcEEElsB8ue170006EPFRS3_S4_E, symObjAddr: 0x61C, symBinAddr: 0x100001698, symSize: 0x2C }
  - { offsetInCU: 0x10812, offset: 0x10812, size: 0x8, addend: 0x0, symName: __ZNSt3__112basic_stringIcNS_11char_traitsIcEENS_9allocatorIcEEEixB8ue170006Em, symObjAddr: 0x6A0, symBinAddr: 0x10000171C, symSize: 0x30 }
  - { offsetInCU: 0x10846, offset: 0x10846, size: 0x8, addend: 0x0, symName: __ZNSt3__13mapIcNS_3setIcNS_4lessIcEENS_9allocatorIcEEEES3_NS4_INS_4pairIKcS6_EEEEEixERS8_, symObjAddr: 0x6D0, symBinAddr: 0x10000174C, symSize: 0xC8 }
  - { offsetInCU: 0x108BD, offset: 0x108BD, size: 0x8, addend: 0x0, symName: __ZNSt3__13setIcNS_4lessIcEENS_9allocatorIcEEE6insertB8ue170006ERKc, symObjAddr: 0x798, symBinAddr: 0x100001814, symSize: 0x4C }
  - { offsetInCU: 0x108F1, offset: 0x108F1, size: 0x8, addend: 0x0, symName: __ZNKSt3__112basic_stringIcNS_11char_traitsIcEENS_9allocatorIcEEE4sizeB8ue170006Ev, symObjAddr: 0x80C, symBinAddr: 0x100001888, symSize: 0x54 }
  - { offsetInCU: 0x10916, offset: 0x10916, size: 0x8, addend: 0x0, symName: __ZNSt3__13setIcNS_4lessIcEENS_9allocatorIcEEE5beginB8ue170006Ev, symObjAddr: 0x860, symBinAddr: 0x1000018DC, symSize: 0x38 }
  - { offsetInCU: 0x1093B, offset: 0x1093B, size: 0x8, addend: 0x0, symName: __ZNSt3__13setIcNS_4lessIcEENS_9allocatorIcEEE3endB8ue170006Ev, symObjAddr: 0x898, symBinAddr: 0x100001914, symSize: 0x38 }
  - { offsetInCU: 0x10960, offset: 0x10960, size: 0x8, addend: 0x0, symName: __ZNKSt3__121__tree_const_iteratorIcPNS_11__tree_nodeIcPvEElEdeB8ue170006Ev, symObjAddr: 0x904, symBinAddr: 0x100001980, symSize: 0x28 }
  - { offsetInCU: 0x10985, offset: 0x10985, size: 0x8, addend: 0x0, symName: __ZNSt3__121__tree_const_iteratorIcPNS_11__tree_nodeIcPvEElEppB8ue170006Ev, symObjAddr: 0x92C, symBinAddr: 0x1000019A8, symSize: 0x38 }
  - { offsetInCU: 0x109AA, offset: 0x109AA, size: 0x8, addend: 0x0, symName: __ZN4RuleD1Ev, symObjAddr: 0x970, symBinAddr: 0x1000019EC, symSize: 0x2C }
  - { offsetInCU: 0x109D5, offset: 0x109D5, size: 0x8, addend: 0x0, symName: __ZNSt3__111__wrap_iterIP4RuleEppB8ue170006Ev, symObjAddr: 0x99C, symBinAddr: 0x100001A18, symSize: 0x20 }
  - { offsetInCU: 0x109F9, offset: 0x109F9, size: 0x8, addend: 0x0, symName: __Z11getFirstSetNSt3__16vectorI4RuleNS_9allocatorIS1_EEEE, symObjAddr: 0x9BC, symBinAddr: 0x100001A38, symSize: 0xE4 }
  - { offsetInCU: 0x10A36, offset: 0x10A36, size: 0x8, addend: 0x0, symName: __ZNSt3__13mapIcNS_3setIcNS_4lessIcEENS_9allocatorIcEEEES3_NS4_INS_4pairIKcS6_EEEEEC1B8ue170006Ev, symObjAddr: 0xAA0, symBinAddr: 0x100001B1C, symSize: 0x2C }
  - { offsetInCU: 0x10A5F, offset: 0x10A5F, size: 0x8, addend: 0x0, symName: __ZNSt3__16vectorI4RuleNS_9allocatorIS1_EEEC1ERKS4_, symObjAddr: 0xACC, symBinAddr: 0x100001B48, symSize: 0x34 }
  - { offsetInCU: 0x10A99, offset: 0x10A99, size: 0x8, addend: 0x0, symName: __ZNSt3__16vectorI4RuleNS_9allocatorIS1_EEED1B8ue170006Ev, symObjAddr: 0xB00, symBinAddr: 0x100001B7C, symSize: 0x2C }
  - { offsetInCU: 0x10AC2, offset: 0x10AC2, size: 0x8, addend: 0x0, symName: __ZNSt3__13mapIcNS_3setIcNS_4lessIcEENS_9allocatorIcEEEES3_NS4_INS_4pairIKcS6_EEEEED1B8ue170006Ev, symObjAddr: 0xB2C, symBinAddr: 0x100001BA8, symSize: 0x2C }
  - { offsetInCU: 0x10AEA, offset: 0x10AEA, size: 0x8, addend: 0x0, symName: __Z13printFirstSetNSt3__13mapIcNS_3setIcNS_4lessIcEENS_9allocatorIcEEEES3_NS4_INS_4pairIKcS6_EEEEEE, symObjAddr: 0xB58, symBinAddr: 0x100001BD4, symSize: 0x1C0 }
  - { offsetInCU: 0x10BAA, offset: 0x10BAA, size: 0x8, addend: 0x0, symName: __ZNSt3__13mapIcNS_3setIcNS_4lessIcEENS_9allocatorIcEEEES3_NS4_INS_4pairIKcS6_EEEEE5beginB8ue170006Ev, symObjAddr: 0xD18, symBinAddr: 0x100001D94, symSize: 0x38 }
  - { offsetInCU: 0x10BCF, offset: 0x10BCF, size: 0x8, addend: 0x0, symName: __ZNSt3__13mapIcNS_3setIcNS_4lessIcEENS_9allocatorIcEEEES3_NS4_INS_4pairIKcS6_EEEEE3endB8ue170006Ev, symObjAddr: 0xD50, symBinAddr: 0x100001DCC, symSize: 0x38 }
  - { offsetInCU: 0x10BF4, offset: 0x10BF4, size: 0x8, addend: 0x0, symName: __ZNKSt3__114__map_iteratorINS_15__tree_iteratorINS_12__value_typeIcNS_3setIcNS_4lessIcEENS_9allocatorIcEEEEEEPNS_11__tree_nodeIS9_PvEElEEEdeB8ue170006Ev, symObjAddr: 0xDB8, symBinAddr: 0x100001E34, symSize: 0x28 }
  - { offsetInCU: 0x10C19, offset: 0x10C19, size: 0x8, addend: 0x0, symName: __ZNSt3__14pairIKcNS_3setIcNS_4lessIcEENS_9allocatorIcEEEEEC1B8ue170006ERKS8_, symObjAddr: 0xDE0, symBinAddr: 0x100001E5C, symSize: 0x34 }
  - { offsetInCU: 0x10C4C, offset: 0x10C4C, size: 0x8, addend: 0x0, symName: __ZNSt3__14pairIKcNS_3setIcNS_4lessIcEENS_9allocatorIcEEEEED1Ev, symObjAddr: 0xE14, symBinAddr: 0x100001E90, symSize: 0x2C }
  - { offsetInCU: 0x10C77, offset: 0x10C77, size: 0x8, addend: 0x0, symName: __ZNSt3__114__map_iteratorINS_15__tree_iteratorINS_12__value_typeIcNS_3setIcNS_4lessIcEENS_9allocatorIcEEEEEEPNS_11__tree_nodeIS9_PvEElEEEppB8ue170006Ev, symObjAddr: 0xE40, symBinAddr: 0x100001EBC, symSize: 0x2C }
  - { offsetInCU: 0x10C9C, offset: 0x10C9C, size: 0x8, addend: 0x0, symName: _main, symObjAddr: 0xE6C, symBinAddr: 0x100001EE8, symSize: 0x580 }
  - { offsetInCU: 0x10CD3, offset: 0x10CD3, size: 0x8, addend: 0x0, symName: __ZNSt3__16vectorI4RuleNS_9allocatorIS1_EEEC1B8ue170006Ev, symObjAddr: 0x13EC, symBinAddr: 0x100002468, symSize: 0x2C }
  - { offsetInCU: 0x10CFC, offset: 0x10CFC, size: 0x8, addend: 0x0, symName: __ZNSt3__16vectorI4RuleNS_9allocatorIS1_EEE9push_backB8ue170006EOS1_, symObjAddr: 0x1418, symBinAddr: 0x100002494, symSize: 0x6C }
  - { offsetInCU: 0x10D36, offset: 0x10D36, size: 0x8, addend: 0x0, symName: __ZNSt3__112basic_stringIcNS_11char_traitsIcEENS_9allocatorIcEEEC1B8ue170006ILi0EEEPKc, symObjAddr: 0x1484, symBinAddr: 0x100002500, symSize: 0x34 }
  - { offsetInCU: 0x10D74, offset: 0x10D74, size: 0x8, addend: 0x0, symName: __ZN4RuleC1EcNSt3__112basic_stringIcNS0_11char_traitsIcEENS0_9allocatorIcEEEE, symObjAddr: 0x14B8, symBinAddr: 0x100002534, symSize: 0x3C }
  - { offsetInCU: 0x10DBA, offset: 0x10DBA, size: 0x8, addend: 0x0, symName: __ZNSt3__13mapIcNS_3setIcNS_4lessIcEENS_9allocatorIcEEEES3_NS4_INS_4pairIKcS6_EEEEEC1B8ue170006ERKSB_, symObjAddr: 0x14F4, symBinAddr: 0x100002570, symSize: 0x34 }
  - { offsetInCU: 0x10DF2, offset: 0x10DF2, size: 0x8, addend: 0x0, symName: __ZN4RuleC2ERKS_, symObjAddr: 0x1528, symBinAddr: 0x1000025A4, symSize: 0x48 }
  - { offsetInCU: 0x10E25, offset: 0x10E25, size: 0x8, addend: 0x0, symName: __Z8__istypeim, symObjAddr: 0x1570, symBinAddr: 0x1000025EC, symSize: 0x8C }
  - { offsetInCU: 0x10E5F, offset: 0x10E5F, size: 0x8, addend: 0x0, symName: __Z7isasciii, symObjAddr: 0x15FC, symBinAddr: 0x100002678, symSize: 0x24 }
  - { offsetInCU: 0x10E8C, offset: 0x10E8C, size: 0x8, addend: 0x0, symName: __ZN4RuleD2Ev, symObjAddr: 0x1620, symBinAddr: 0x10000269C, symSize: 0x30 }
  - { offsetInCU: 0x10EB7, offset: 0x10EB7, size: 0x8, addend: 0x0, symName: __ZNSt3__14pairIKcNS_3setIcNS_4lessIcEENS_9allocatorIcEEEEEC2B8ue170006ERKS8_, symObjAddr: 0x1650, symBinAddr: 0x1000026CC, symSize: 0x48 }
  - { offsetInCU: 0x10EEA, offset: 0x10EEA, size: 0x8, addend: 0x0, symName: __ZNSt3__13setIcNS_4lessIcEENS_9allocatorIcEEEC1B8ue170006ERKS5_, symObjAddr: 0x1698, symBinAddr: 0x100002714, symSize: 0x34 }
  - { offsetInCU: 0x10F22, offset: 0x10F22, size: 0x8, addend: 0x0, symName: __ZNSt3__13setIcNS_4lessIcEENS_9allocatorIcEEEC2B8ue170006ERKS5_, symObjAddr: 0x16CC, symBinAddr: 0x100002748, symSize: 0x90 }
  - { offsetInCU: 0x10F5A, offset: 0x10F5A, size: 0x8, addend: 0x0, symName: __ZNSt3__16__treeIcNS_4lessIcEENS_9allocatorIcEEEC1ERKS5_, symObjAddr: 0x175C, symBinAddr: 0x1000027D8, symSize: 0x34 }
  - { offsetInCU: 0x10F94, offset: 0x10F94, size: 0x8, addend: 0x0, symName: __ZNSt3__13setIcNS_4lessIcEENS_9allocatorIcEEE6insertB8ue170006INS_21__tree_const_iteratorIcPNS_11__tree_nodeIcPvEElEEEEvT_SD_, symObjAddr: 0x1790, symBinAddr: 0x10000280C, symSize: 0x80 }
  - { offsetInCU: 0x10FFD, offset: 0x10FFD, size: 0x8, addend: 0x0, symName: __ZNKSt3__13setIcNS_4lessIcEENS_9allocatorIcEEE5beginB8ue170006Ev, symObjAddr: 0x1810, symBinAddr: 0x10000288C, symSize: 0x2C }
  - { offsetInCU: 0x11022, offset: 0x11022, size: 0x8, addend: 0x0, symName: __ZNKSt3__13setIcNS_4lessIcEENS_9allocatorIcEEE3endB8ue170006Ev, symObjAddr: 0x183C, symBinAddr: 0x1000028B8, symSize: 0x2C }
  - { offsetInCU: 0x11047, offset: 0x11047, size: 0x8, addend: 0x0, symName: __ZNSt3__16__treeIcNS_4lessIcEENS_9allocatorIcEEED1Ev, symObjAddr: 0x1868, symBinAddr: 0x1000028E4, symSize: 0x2C }
  - { offsetInCU: 0x11072, offset: 0x11072, size: 0x8, addend: 0x0, symName: __ZNSt3__16__treeIcNS_4lessIcEENS_9allocatorIcEEEC2ERKS5_, symObjAddr: 0x1894, symBinAddr: 0x100002910, symSize: 0x9C }
  - { offsetInCU: 0x110B6, offset: 0x110B6, size: 0x8, addend: 0x0, symName: __ZNSt3__116allocator_traitsINS_9allocatorINS_11__tree_nodeIcPvEEEEE37select_on_container_copy_constructionB8ue170006IS5_vvEES5_RKS5_, symObjAddr: 0x1930, symBinAddr: 0x1000029AC, symSize: 0x10 }
  - { offsetInCU: 0x110E5, offset: 0x110E5, size: 0x8, addend: 0x0, symName: __ZNKSt3__16__treeIcNS_4lessIcEENS_9allocatorIcEEE12__node_allocB8ue170006Ev, symObjAddr: 0x1940, symBinAddr: 0x1000029BC, symSize: 0x28 }
  - { offsetInCU: 0x11114, offset: 0x11114, size: 0x8, addend: 0x0, symName: __ZNSt3__117__compressed_pairINS_15__tree_end_nodeIPNS_16__tree_node_baseIPvEEEENS_9allocatorINS_11__tree_nodeIcS3_EEEEEC1B8ue170006INS_18__default_init_tagESA_EEOT_OT0_, symObjAddr: 0x1968, symBinAddr: 0x1000029E4, symSize: 0x3C }
  - { offsetInCU: 0x1116B, offset: 0x1116B, size: 0x8, addend: 0x0, symName: __ZNKSt3__16__treeIcNS_4lessIcEENS_9allocatorIcEEE10value_compB8ue170006Ev, symObjAddr: 0x19A4, symBinAddr: 0x100002A20, symSize: 0x28 }
  - { offsetInCU: 0x11195, offset: 0x11195, size: 0x8, addend: 0x0, symName: __ZNSt3__117__compressed_pairImNS_4lessIcEEEC1B8ue170006IiRKS2_EEOT_OT0_, symObjAddr: 0x19CC, symBinAddr: 0x100002A48, symSize: 0x3C }
  - { offsetInCU: 0x111EC, offset: 0x111EC, size: 0x8, addend: 0x0, symName: __ZNSt3__16__treeIcNS_4lessIcEENS_9allocatorIcEEE10__end_nodeB8ue170006Ev, symObjAddr: 0x1A08, symBinAddr: 0x100002A84, symSize: 0x2C }
  - { offsetInCU: 0x11211, offset: 0x11211, size: 0x8, addend: 0x0, symName: __ZNSt3__16__treeIcNS_4lessIcEENS_9allocatorIcEEE12__begin_nodeB8ue170006Ev, symObjAddr: 0x1A34, symBinAddr: 0x100002AB0, symSize: 0x14 }
  - { offsetInCU: 0x11236, offset: 0x11236, size: 0x8, addend: 0x0, symName: __ZNKSt3__117__compressed_pairINS_15__tree_end_nodeIPNS_16__tree_node_baseIPvEEEENS_9allocatorINS_11__tree_nodeIcS3_EEEEE6secondB8ue170006Ev, symObjAddr: 0x1A48, symBinAddr: 0x100002AC4, symSize: 0x24 }
  - { offsetInCU: 0x1125B, offset: 0x1125B, size: 0x8, addend: 0x0, symName: __ZNKSt3__122__compressed_pair_elemINS_9allocatorINS_11__tree_nodeIcPvEEEELi1ELb1EE5__getB8ue170006Ev, symObjAddr: 0x1A6C, symBinAddr: 0x100002AE8, symSize: 0x14 }
  - { offsetInCU: 0x11280, offset: 0x11280, size: 0x8, addend: 0x0, symName: __ZNSt3__117__compressed_pairINS_15__tree_end_nodeIPNS_16__tree_node_baseIPvEEEENS_9allocatorINS_11__tree_nodeIcS3_EEEEEC2B8ue170006INS_18__default_init_tagESA_EEOT_OT0_, symObjAddr: 0x1A80, symBinAddr: 0x100002AFC, symSize: 0x40 }
  - { offsetInCU: 0x112D7, offset: 0x112D7, size: 0x8, addend: 0x0, symName: __ZNSt3__122__compressed_pair_elemINS_15__tree_end_nodeIPNS_16__tree_node_baseIPvEEEELi0ELb0EEC2B8ue170006ENS_18__default_init_tagE, symObjAddr: 0x1AC0, symBinAddr: 0x100002B3C, symSize: 0x2C }
  - { offsetInCU: 0x1130A, offset: 0x1130A, size: 0x8, addend: 0x0, symName: __ZNSt3__122__compressed_pair_elemINS_9allocatorINS_11__tree_nodeIcPvEEEELi1ELb1EEC2B8ue170006IS5_vEEOT_, symObjAddr: 0x1AEC, symBinAddr: 0x100002B68, symSize: 0x18 }
  - { offsetInCU: 0x1134B, offset: 0x1134B, size: 0x8, addend: 0x0, symName: __ZNSt3__115__tree_end_nodeIPNS_16__tree_node_baseIPvEEEC1B8ue170006Ev, symObjAddr: 0x1B04, symBinAddr: 0x100002B80, symSize: 0x2C }
  - { offsetInCU: 0x11374, offset: 0x11374, size: 0x8, addend: 0x0, symName: __ZNSt3__115__tree_end_nodeIPNS_16__tree_node_baseIPvEEEC2B8ue170006Ev, symObjAddr: 0x1B30, symBinAddr: 0x100002BAC, symSize: 0x18 }
  - { offsetInCU: 0x1139D, offset: 0x1139D, size: 0x8, addend: 0x0, symName: __ZNKSt3__117__compressed_pairImNS_4lessIcEEE6secondB8ue170006Ev, symObjAddr: 0x1B48, symBinAddr: 0x100002BC4, symSize: 0x24 }
  - { offsetInCU: 0x113C2, offset: 0x113C2, size: 0x8, addend: 0x0, symName: __ZNKSt3__122__compressed_pair_elemINS_4lessIcEELi1ELb1EE5__getB8ue170006Ev, symObjAddr: 0x1B6C, symBinAddr: 0x100002BE8, symSize: 0x14 }
  - { offsetInCU: 0x113E7, offset: 0x113E7, size: 0x8, addend: 0x0, symName: __ZNSt3__117__compressed_pairImNS_4lessIcEEEC2B8ue170006IiRKS2_EEOT_OT0_, symObjAddr: 0x1B80, symBinAddr: 0x100002BFC, symSize: 0x44 }
  - { offsetInCU: 0x1143E, offset: 0x1143E, size: 0x8, addend: 0x0, symName: __ZNSt3__122__compressed_pair_elemImLi0ELb0EEC2B8ue170006IivEEOT_, symObjAddr: 0x1BC4, symBinAddr: 0x100002C40, symSize: 0x24 }
  - { offsetInCU: 0x1147F, offset: 0x1147F, size: 0x8, addend: 0x0, symName: __ZNSt3__122__compressed_pair_elemINS_4lessIcEELi1ELb1EEC2B8ue170006IRKS2_vEEOT_, symObjAddr: 0x1BE8, symBinAddr: 0x100002C64, symSize: 0x18 }
  - { offsetInCU: 0x114C0, offset: 0x114C0, size: 0x8, addend: 0x0, symName: __ZNSt3__114pointer_traitsIPNS_15__tree_end_nodeIPNS_16__tree_node_baseIPvEEEEE10pointer_toB8ue170006ERS6_, symObjAddr: 0x1C00, symBinAddr: 0x100002C7C, symSize: 0x14 }
  - { offsetInCU: 0x114E3, offset: 0x114E3, size: 0x8, addend: 0x0, symName: __ZNSt3__117__compressed_pairINS_15__tree_end_nodeIPNS_16__tree_node_baseIPvEEEENS_9allocatorINS_11__tree_nodeIcS3_EEEEE5firstB8ue170006Ev, symObjAddr: 0x1C14, symBinAddr: 0x100002C90, symSize: 0x24 }
  - { offsetInCU: 0x11508, offset: 0x11508, size: 0x8, addend: 0x0, symName: __ZNSt3__122__compressed_pair_elemINS_15__tree_end_nodeIPNS_16__tree_node_baseIPvEEEELi0ELb0EE5__getB8ue170006Ev, symObjAddr: 0x1C38, symBinAddr: 0x100002CB4, symSize: 0x14 }
  - { offsetInCU: 0x1152D, offset: 0x1152D, size: 0x8, addend: 0x0, symName: __ZNKSt3__13setIcNS_4lessIcEENS_9allocatorIcEEE4cendB8ue170006Ev, symObjAddr: 0x1C4C, symBinAddr: 0x100002CC8, symSize: 0x2C }
  - { offsetInCU: 0x11552, offset: 0x11552, size: 0x8, addend: 0x0, symName: __ZNSt3__16__treeIcNS_4lessIcEENS_9allocatorIcEEE15__insert_uniqueB8ue170006ENS_21__tree_const_iteratorIcPNS_11__tree_nodeIcPvEElEERKc, symObjAddr: 0x1C78, symBinAddr: 0x100002CF4, symSize: 0x64 }
  - { offsetInCU: 0x11595, offset: 0x11595, size: 0x8, addend: 0x0, symName: __ZNSt3__16__treeIcNS_4lessIcEENS_9allocatorIcEEE30__emplace_hint_unique_key_argsIcJRKcEEENS_4pairINS_15__tree_iteratorIcPNS_11__tree_nodeIcPvEElEEbEENS_21__tree_const_iteratorIcSE_lEERKT_DpOT0_, symObjAddr: 0x1CDC, symBinAddr: 0x100002D58, symSize: 0x104 }
  - { offsetInCU: 0x1165F, offset: 0x1165F, size: 0x8, addend: 0x0, symName: __ZNSt3__122__tree_key_value_typesIcE9__get_keyB8ue170006ERKc, symObjAddr: 0x1DE0, symBinAddr: 0x100002E5C, symSize: 0x14 }
  - { offsetInCU: 0x11683, offset: 0x11683, size: 0x8, addend: 0x0, symName: __ZNSt3__16__treeIcNS_4lessIcEENS_9allocatorIcEEE12__find_equalIcEERPNS_16__tree_node_baseIPvEENS_21__tree_const_iteratorIcPNS_11__tree_nodeIcS8_EElEERPNS_15__tree_end_nodeISA_EESB_RKT_, symObjAddr: 0x1DF4, symBinAddr: 0x100002E70, symSize: 0x304 }
  - { offsetInCU: 0x1172A, offset: 0x1172A, size: 0x8, addend: 0x0, symName: __ZNSt3__16__treeIcNS_4lessIcEENS_9allocatorIcEEE16__construct_nodeIJRKcEEENS_10unique_ptrINS_11__tree_nodeIcPvEENS_22__tree_node_destructorINS3_ISC_EEEEEEDpOT_, symObjAddr: 0x20F8, symBinAddr: 0x100003174, symSize: 0x118 }
  - { offsetInCU: 0x11789, offset: 0x11789, size: 0x8, addend: 0x0, symName: __ZNSt3__16__treeIcNS_4lessIcEENS_9allocatorIcEEE16__insert_node_atEPNS_15__tree_end_nodeIPNS_16__tree_node_baseIPvEEEERSA_SA_, symObjAddr: 0x2210, symBinAddr: 0x10000328C, symSize: 0xCC }
  - { offsetInCU: 0x117DC, offset: 0x117DC, size: 0x8, addend: 0x0, symName: __ZNKSt3__110unique_ptrINS_11__tree_nodeIcPvEENS_22__tree_node_destructorINS_9allocatorIS3_EEEEE3getB8ue170006Ev, symObjAddr: 0x22DC, symBinAddr: 0x100003358, symSize: 0x28 }
  - { offsetInCU: 0x11801, offset: 0x11801, size: 0x8, addend: 0x0, symName: __ZNSt3__110unique_ptrINS_11__tree_nodeIcPvEENS_22__tree_node_destructorINS_9allocatorIS3_EEEEE7releaseB8ue170006Ev, symObjAddr: 0x2304, symBinAddr: 0x100003380, symSize: 0x44 }
  - { offsetInCU: 0x11835, offset: 0x11835, size: 0x8, addend: 0x0, symName: __ZNSt3__110unique_ptrINS_11__tree_nodeIcPvEENS_22__tree_node_destructorINS_9allocatorIS3_EEEEED1B8ue170006Ev, symObjAddr: 0x2348, symBinAddr: 0x1000033C4, symSize: 0x2C }
  - { offsetInCU: 0x1185E, offset: 0x1185E, size: 0x8, addend: 0x0, symName: __ZNSt3__115__tree_iteratorIcPNS_11__tree_nodeIcPvEElEC1B8ue170006ES4_, symObjAddr: 0x2374, symBinAddr: 0x1000033F0, symSize: 0x34 }
  - { offsetInCU: 0x11896, offset: 0x11896, size: 0x8, addend: 0x0, symName: __ZNSt3__14pairINS_15__tree_iteratorIcPNS_11__tree_nodeIcPvEElEEbEC1B8ue170006ERKS6_RKb, symObjAddr: 0x23A8, symBinAddr: 0x100003424, symSize: 0x3C }
  - { offsetInCU: 0x118DB, offset: 0x118DB, size: 0x8, addend: 0x0, symName: __ZNSt3__16__treeIcNS_4lessIcEENS_9allocatorIcEEE3endB8ue170006Ev, symObjAddr: 0x2414, symBinAddr: 0x100003490, symSize: 0x34 }
  - { offsetInCU: 0x11900, offset: 0x11900, size: 0x8, addend: 0x0, symName: __ZNSt3__121__tree_const_iteratorIcPNS_11__tree_nodeIcPvEElEC1B8ue170006ENS_15__tree_iteratorIcS4_lEE, symObjAddr: 0x2448, symBinAddr: 0x1000034C4, symSize: 0x34 }
  - { offsetInCU: 0x11938, offset: 0x11938, size: 0x8, addend: 0x0, symName: __ZNSt3__16__treeIcNS_4lessIcEENS_9allocatorIcEEE10value_compB8ue170006Ev, symObjAddr: 0x247C, symBinAddr: 0x1000034F8, symSize: 0x28 }
  - { offsetInCU: 0x1195D, offset: 0x1195D, size: 0x8, addend: 0x0, symName: __ZNKSt3__14lessIcEclB8ue170006ERKcS3_, symObjAddr: 0x24A4, symBinAddr: 0x100003520, symSize: 0x34 }
  - { offsetInCU: 0x119A0, offset: 0x119A0, size: 0x8, addend: 0x0, symName: __ZNSt3__16__treeIcNS_4lessIcEENS_9allocatorIcEEE5beginB8ue170006Ev, symObjAddr: 0x24D8, symBinAddr: 0x100003554, symSize: 0x34 }
  - { offsetInCU: 0x119C5, offset: 0x119C5, size: 0x8, addend: 0x0, symName: __ZNSt3__121__tree_const_iteratorIcPNS_11__tree_nodeIcPvEElEmmB8ue170006Ev, symObjAddr: 0x250C, symBinAddr: 0x100003588, symSize: 0x38 }
  - { offsetInCU: 0x119EA, offset: 0x119EA, size: 0x8, addend: 0x0, symName: __ZNSt3__16__treeIcNS_4lessIcEENS_9allocatorIcEEE12__find_equalIcEERPNS_16__tree_node_baseIPvEERPNS_15__tree_end_nodeISA_EERKT_, symObjAddr: 0x2544, symBinAddr: 0x1000035C0, symSize: 0x184 }
  - { offsetInCU: 0x11A55, offset: 0x11A55, size: 0x8, addend: 0x0, symName: __ZNKSt3__121__tree_const_iteratorIcPNS_11__tree_nodeIcPvEElE8__get_npB8ue170006Ev, symObjAddr: 0x2704, symBinAddr: 0x100003780, symSize: 0x18 }
  - { offsetInCU: 0x11A7A, offset: 0x11A7A, size: 0x8, addend: 0x0, symName: __ZNSt3__115__tree_iteratorIcPNS_11__tree_nodeIcPvEElEC1B8ue170006EPNS_15__tree_end_nodeIPNS_16__tree_node_baseIS2_EEEE, symObjAddr: 0x271C, symBinAddr: 0x100003798, symSize: 0x34 }
  - { offsetInCU: 0x11AB2, offset: 0x11AB2, size: 0x8, addend: 0x0, symName: __ZNSt3__115__tree_iteratorIcPNS_11__tree_nodeIcPvEElEC2B8ue170006EPNS_15__tree_end_nodeIPNS_16__tree_node_baseIS2_EEEE, symObjAddr: 0x2750, symBinAddr: 0x1000037CC, symSize: 0x20 }
  - { offsetInCU: 0x11AEA, offset: 0x11AEA, size: 0x8, addend: 0x0, symName: __ZNSt3__121__tree_const_iteratorIcPNS_11__tree_nodeIcPvEElEC2B8ue170006ENS_15__tree_iteratorIcS4_lEE, symObjAddr: 0x2770, symBinAddr: 0x1000037EC, symSize: 0x20 }
  - { offsetInCU: 0x11B22, offset: 0x11B22, size: 0x8, addend: 0x0, symName: __ZNSt3__117__compressed_pairImNS_4lessIcEEE6secondB8ue170006Ev, symObjAddr: 0x2790, symBinAddr: 0x10000380C, symSize: 0x24 }
  - { offsetInCU: 0x11B47, offset: 0x11B47, size: 0x8, addend: 0x0, symName: __ZNSt3__122__compressed_pair_elemINS_4lessIcEELi1ELb1EE5__getB8ue170006Ev, symObjAddr: 0x27B4, symBinAddr: 0x100003830, symSize: 0x14 }
  - { offsetInCU: 0x11B6C, offset: 0x11B6C, size: 0x8, addend: 0x0, symName: __ZNKSt3__116__tree_node_baseIPvE15__parent_unsafeB8ue170006Ev, symObjAddr: 0x28EC, symBinAddr: 0x100003968, symSize: 0x18 }
  - { offsetInCU: 0x11B91, offset: 0x11B91, size: 0x8, addend: 0x0, symName: __ZNKSt3__16__treeIcNS_4lessIcEENS_9allocatorIcEEE6__rootB8ue170006Ev, symObjAddr: 0x2904, symBinAddr: 0x100003980, symSize: 0x28 }
  - { offsetInCU: 0x11BB6, offset: 0x11BB6, size: 0x8, addend: 0x0, symName: __ZNKSt3__16__treeIcNS_4lessIcEENS_9allocatorIcEEE10__root_ptrB8ue170006Ev, symObjAddr: 0x292C, symBinAddr: 0x1000039A8, symSize: 0x24 }
  - { offsetInCU: 0x11BDB, offset: 0x11BDB, size: 0x8, addend: 0x0, symName: __ZNKSt3__16__treeIcNS_4lessIcEENS_9allocatorIcEEE10__end_nodeB8ue170006Ev, symObjAddr: 0x2950, symBinAddr: 0x1000039CC, symSize: 0x2C }
  - { offsetInCU: 0x11C00, offset: 0x11C00, size: 0x8, addend: 0x0, symName: __ZNKSt3__117__compressed_pairINS_15__tree_end_nodeIPNS_16__tree_node_baseIPvEEEENS_9allocatorINS_11__tree_nodeIcS3_EEEEE5firstB8ue170006Ev, symObjAddr: 0x297C, symBinAddr: 0x1000039F8, symSize: 0x24 }
  - { offsetInCU: 0x11C25, offset: 0x11C25, size: 0x8, addend: 0x0, symName: __ZNKSt3__122__compressed_pair_elemINS_15__tree_end_nodeIPNS_16__tree_node_baseIPvEEEELi0ELb0EE5__getB8ue170006Ev, symObjAddr: 0x29A0, symBinAddr: 0x100003A1C, symSize: 0x14 }
  - { offsetInCU: 0x11C4A, offset: 0x11C4A, size: 0x8, addend: 0x0, symName: __ZNSt3__16__treeIcNS_4lessIcEENS_9allocatorIcEEE12__node_allocB8ue170006Ev, symObjAddr: 0x2AA4, symBinAddr: 0x100003B20, symSize: 0x28 }
  - { offsetInCU: 0x11C6F, offset: 0x11C6F, size: 0x8, addend: 0x0, symName: __ZNSt3__116allocator_traitsINS_9allocatorINS_11__tree_nodeIcPvEEEEE8allocateB8ue170006ERS5_m, symObjAddr: 0x2ACC, symBinAddr: 0x100003B48, symSize: 0x2C }
  - { offsetInCU: 0x11CA2, offset: 0x11CA2, size: 0x8, addend: 0x0, symName: __ZNSt3__122__tree_node_destructorINS_9allocatorINS_11__tree_nodeIcPvEEEEEC1B8ue170006ERS5_b, symObjAddr: 0x2AF8, symBinAddr: 0x100003B74, symSize: 0x48 }
  - { offsetInCU: 0x11CEE, offset: 0x11CEE, size: 0x8, addend: 0x0, symName: __ZNSt3__110unique_ptrINS_11__tree_nodeIcPvEENS_22__tree_node_destructorINS_9allocatorIS3_EEEEEC1B8ue170006ILb1EvEEPS3_NS_16__dependent_typeINS_27__unique_ptr_deleter_sfinaeIS7_EEXT_EE20__good_rval_ref_typeE, symObjAddr: 0x2B40, symBinAddr: 0x100003BBC, symSize: 0x3C }
  - { offsetInCU: 0x11D3E, offset: 0x11D3E, size: 0x8, addend: 0x0, symName: __ZNSt3__116allocator_traitsINS_9allocatorINS_11__tree_nodeIcPvEEEEE9constructB8ue170006IcJRKcEvEEvRS5_PT_DpOT0_, symObjAddr: 0x2B7C, symBinAddr: 0x100003BF8, symSize: 0x34 }
  - { offsetInCU: 0x11D95, offset: 0x11D95, size: 0x8, addend: 0x0, symName: __ZNSt3__122__tree_key_value_typesIcE9__get_ptrB8ue170006ERc, symObjAddr: 0x2BB0, symBinAddr: 0x100003C2C, symSize: 0x14 }
  - { offsetInCU: 0x11DB9, offset: 0x11DB9, size: 0x8, addend: 0x0, symName: __ZNKSt3__110unique_ptrINS_11__tree_nodeIcPvEENS_22__tree_node_destructorINS_9allocatorIS3_EEEEEptB8ue170006Ev, symObjAddr: 0x2BC4, symBinAddr: 0x100003C40, symSize: 0x28 }
  - { offsetInCU: 0x11DDE, offset: 0x11DDE, size: 0x8, addend: 0x0, symName: __ZNSt3__110unique_ptrINS_11__tree_nodeIcPvEENS_22__tree_node_destructorINS_9allocatorIS3_EEEEE11get_deleterB8ue170006Ev, symObjAddr: 0x2BEC, symBinAddr: 0x100003C68, symSize: 0x24 }
  - { offsetInCU: 0x11E03, offset: 0x11E03, size: 0x8, addend: 0x0, symName: __ZNSt3__117__compressed_pairINS_15__tree_end_nodeIPNS_16__tree_node_baseIPvEEEENS_9allocatorINS_11__tree_nodeIcS3_EEEEE6secondB8ue170006Ev, symObjAddr: 0x2C10, symBinAddr: 0x100003C8C, symSize: 0x24 }
  - { offsetInCU: 0x11E28, offset: 0x11E28, size: 0x8, addend: 0x0, symName: __ZNSt3__122__compressed_pair_elemINS_9allocatorINS_11__tree_nodeIcPvEEEELi1ELb1EE5__getB8ue170006Ev, symObjAddr: 0x2C34, symBinAddr: 0x100003CB0, symSize: 0x14 }
  - { offsetInCU: 0x11E4D, offset: 0x11E4D, size: 0x8, addend: 0x0, symName: __ZNSt3__19allocatorINS_11__tree_nodeIcPvEEE8allocateB8ue170006Em, symObjAddr: 0x2C48, symBinAddr: 0x100003CC4, symSize: 0x84 }
  - { offsetInCU: 0x11E80, offset: 0x11E80, size: 0x8, addend: 0x0, symName: __ZNSt3__116allocator_traitsINS_9allocatorINS_11__tree_nodeIcPvEEEEE8max_sizeB8ue170006IS5_vEEmRKS5_, symObjAddr: 0x2CCC, symBinAddr: 0x100003D48, symSize: 0x24 }
  - { offsetInCU: 0x11EAE, offset: 0x11EAE, size: 0x8, addend: 0x0, symName: __ZNKSt3__19allocatorINS_11__tree_nodeIcPvEEE8max_sizeB8ue170006Ev, symObjAddr: 0x2D58, symBinAddr: 0x100003DD4, symSize: 0x14 }
  - { offsetInCU: 0x11ED3, offset: 0x11ED3, size: 0x8, addend: 0x0, symName: __ZNSt3__122__tree_node_destructorINS_9allocatorINS_11__tree_nodeIcPvEEEEEC2B8ue170006ERS5_b, symObjAddr: 0x2D90, symBinAddr: 0x100003E0C, symSize: 0x38 }
  - { offsetInCU: 0x11F1A, offset: 0x11F1A, size: 0x8, addend: 0x0, symName: __ZNSt3__110unique_ptrINS_11__tree_nodeIcPvEENS_22__tree_node_destructorINS_9allocatorIS3_EEEEEC2B8ue170006ILb1EvEEPS3_NS_16__dependent_typeINS_27__unique_ptr_deleter_sfinaeIS7_EEXT_EE20__good_rval_ref_typeE, symObjAddr: 0x2DC8, symBinAddr: 0x100003E44, symSize: 0x5C }
  - { offsetInCU: 0x11F6A, offset: 0x11F6A, size: 0x8, addend: 0x0, symName: __ZNSt3__117__compressed_pairIPNS_11__tree_nodeIcPvEENS_22__tree_node_destructorINS_9allocatorIS3_EEEEEC1B8ue170006IRS4_S8_EEOT_OT0_, symObjAddr: 0x2E24, symBinAddr: 0x100003EA0, symSize: 0x3C }
  - { offsetInCU: 0x11FC1, offset: 0x11FC1, size: 0x8, addend: 0x0, symName: __ZNSt3__117__compressed_pairIPNS_11__tree_nodeIcPvEENS_22__tree_node_destructorINS_9allocatorIS3_EEEEEC2B8ue170006IRS4_S8_EEOT_OT0_, symObjAddr: 0x2E60, symBinAddr: 0x100003EDC, symSize: 0x48 }
  - { offsetInCU: 0x12018, offset: 0x12018, size: 0x8, addend: 0x0, symName: __ZNSt3__122__compressed_pair_elemIPNS_11__tree_nodeIcPvEELi0ELb0EEC2B8ue170006IRS4_vEEOT_, symObjAddr: 0x2EA8, symBinAddr: 0x100003F24, symSize: 0x24 }
  - { offsetInCU: 0x12059, offset: 0x12059, size: 0x8, addend: 0x0, symName: __ZNSt3__122__compressed_pair_elemINS_22__tree_node_destructorINS_9allocatorINS_11__tree_nodeIcPvEEEEEELi1ELb0EEC2B8ue170006IS7_vEEOT_, symObjAddr: 0x2ECC, symBinAddr: 0x100003F48, symSize: 0x24 }
  - { offsetInCU: 0x1209A, offset: 0x1209A, size: 0x8, addend: 0x0, symName: __ZNSt3__19allocatorINS_11__tree_nodeIcPvEEE9constructB8ue170006IcJRKcEEEvPT_DpOT0_, symObjAddr: 0x2EF0, symBinAddr: 0x100003F6C, symSize: 0x28 }
  - { offsetInCU: 0x120EF, offset: 0x120EF, size: 0x8, addend: 0x0, symName: __ZNKSt3__117__compressed_pairIPNS_11__tree_nodeIcPvEENS_22__tree_node_destructorINS_9allocatorIS3_EEEEE5firstB8ue170006Ev, symObjAddr: 0x2F18, symBinAddr: 0x100003F94, symSize: 0x24 }
  - { offsetInCU: 0x12114, offset: 0x12114, size: 0x8, addend: 0x0, symName: __ZNKSt3__122__compressed_pair_elemIPNS_11__tree_nodeIcPvEELi0ELb0EE5__getB8ue170006Ev, symObjAddr: 0x2F3C, symBinAddr: 0x100003FB8, symSize: 0x14 }
  - { offsetInCU: 0x12139, offset: 0x12139, size: 0x8, addend: 0x0, symName: __ZNSt3__117__compressed_pairIPNS_11__tree_nodeIcPvEENS_22__tree_node_destructorINS_9allocatorIS3_EEEEE6secondB8ue170006Ev, symObjAddr: 0x2F50, symBinAddr: 0x100003FCC, symSize: 0x28 }
  - { offsetInCU: 0x1215E, offset: 0x1215E, size: 0x8, addend: 0x0, symName: __ZNSt3__122__compressed_pair_elemINS_22__tree_node_destructorINS_9allocatorINS_11__tree_nodeIcPvEEEEEELi1ELb0EE5__getB8ue170006Ev, symObjAddr: 0x2F78, symBinAddr: 0x100003FF4, symSize: 0x14 }
  - { offsetInCU: 0x12183, offset: 0x12183, size: 0x8, addend: 0x0, symName: __ZNSt3__16__treeIcNS_4lessIcEENS_9allocatorIcEEE4sizeB8ue170006Ev, symObjAddr: 0x3208, symBinAddr: 0x100004284, symSize: 0x28 }
  - { offsetInCU: 0x121A8, offset: 0x121A8, size: 0x8, addend: 0x0, symName: __ZNSt3__116__tree_node_baseIPvE12__set_parentB8ue170006EPS2_, symObjAddr: 0x33E8, symBinAddr: 0x100004464, symSize: 0x20 }
  - { offsetInCU: 0x121DC, offset: 0x121DC, size: 0x8, addend: 0x0, symName: __ZNSt3__117__compressed_pairImNS_4lessIcEEE5firstB8ue170006Ev, symObjAddr: 0x3408, symBinAddr: 0x100004484, symSize: 0x24 }
  - { offsetInCU: 0x12201, offset: 0x12201, size: 0x8, addend: 0x0, symName: __ZNSt3__122__compressed_pair_elemImLi0ELb0EE5__getB8ue170006Ev, symObjAddr: 0x342C, symBinAddr: 0x1000044A8, symSize: 0x14 }
  - { offsetInCU: 0x12226, offset: 0x12226, size: 0x8, addend: 0x0, symName: __ZNSt3__117__compressed_pairIPNS_11__tree_nodeIcPvEENS_22__tree_node_destructorINS_9allocatorIS3_EEEEE5firstB8ue170006Ev, symObjAddr: 0x3440, symBinAddr: 0x1000044BC, symSize: 0x24 }
  - { offsetInCU: 0x1224B, offset: 0x1224B, size: 0x8, addend: 0x0, symName: __ZNSt3__122__compressed_pair_elemIPNS_11__tree_nodeIcPvEELi0ELb0EE5__getB8ue170006Ev, symObjAddr: 0x3464, symBinAddr: 0x1000044E0, symSize: 0x14 }
  - { offsetInCU: 0x12270, offset: 0x12270, size: 0x8, addend: 0x0, symName: __ZNSt3__110unique_ptrINS_11__tree_nodeIcPvEENS_22__tree_node_destructorINS_9allocatorIS3_EEEEED2B8ue170006Ev, symObjAddr: 0x3478, symBinAddr: 0x1000044F4, symSize: 0x30 }
  - { offsetInCU: 0x12299, offset: 0x12299, size: 0x8, addend: 0x0, symName: __ZNSt3__110unique_ptrINS_11__tree_nodeIcPvEENS_22__tree_node_destructorINS_9allocatorIS3_EEEEE5resetB8ue170006EPS3_, symObjAddr: 0x34A8, symBinAddr: 0x100004524, symSize: 0x78 }
  - { offsetInCU: 0x122DC, offset: 0x122DC, size: 0x8, addend: 0x0, symName: __ZNSt3__122__tree_node_destructorINS_9allocatorINS_11__tree_nodeIcPvEEEEEclB8ue170006EPS4_, symObjAddr: 0x3520, symBinAddr: 0x10000459C, symSize: 0xA4 }
  - { offsetInCU: 0x12310, offset: 0x12310, size: 0x8, addend: 0x0, symName: __ZNSt3__116allocator_traitsINS_9allocatorINS_11__tree_nodeIcPvEEEEE7destroyB8ue170006IcvvEEvRS5_PT_, symObjAddr: 0x35C4, symBinAddr: 0x100004640, symSize: 0x14 }
  - { offsetInCU: 0x1234B, offset: 0x1234B, size: 0x8, addend: 0x0, symName: __ZNSt3__116allocator_traitsINS_9allocatorINS_11__tree_nodeIcPvEEEEE10deallocateB8ue170006ERS5_PS4_m, symObjAddr: 0x35D8, symBinAddr: 0x100004654, symSize: 0x34 }
  - { offsetInCU: 0x1238D, offset: 0x1238D, size: 0x8, addend: 0x0, symName: __ZNSt3__19allocatorINS_11__tree_nodeIcPvEEE10deallocateB8ue170006EPS3_m, symObjAddr: 0x360C, symBinAddr: 0x100004688, symSize: 0x70 }
  - { offsetInCU: 0x123CE, offset: 0x123CE, size: 0x8, addend: 0x0, symName: __ZNSt3__115__tree_iteratorIcPNS_11__tree_nodeIcPvEElEC2B8ue170006ES4_, symObjAddr: 0x36F8, symBinAddr: 0x100004774, symSize: 0x20 }
  - { offsetInCU: 0x12406, offset: 0x12406, size: 0x8, addend: 0x0, symName: __ZNSt3__14pairINS_15__tree_iteratorIcPNS_11__tree_nodeIcPvEElEEbEC2B8ue170006ERKS6_RKb, symObjAddr: 0x3718, symBinAddr: 0x100004794, symSize: 0x38 }
  - { offsetInCU: 0x1244B, offset: 0x1244B, size: 0x8, addend: 0x0, symName: __ZNKSt3__16__treeIcNS_4lessIcEENS_9allocatorIcEEE5beginB8ue170006Ev, symObjAddr: 0x3750, symBinAddr: 0x1000047CC, symSize: 0x34 }
  - { offsetInCU: 0x12470, offset: 0x12470, size: 0x8, addend: 0x0, symName: __ZNKSt3__16__treeIcNS_4lessIcEENS_9allocatorIcEEE12__begin_nodeB8ue170006Ev, symObjAddr: 0x3784, symBinAddr: 0x100004800, symSize: 0x14 }
  - { offsetInCU: 0x12495, offset: 0x12495, size: 0x8, addend: 0x0, symName: __ZNSt3__121__tree_const_iteratorIcPNS_11__tree_nodeIcPvEElEC1B8ue170006EPNS_15__tree_end_nodeIPNS_16__tree_node_baseIS2_EEEE, symObjAddr: 0x3798, symBinAddr: 0x100004814, symSize: 0x34 }
  - { offsetInCU: 0x124CD, offset: 0x124CD, size: 0x8, addend: 0x0, symName: __ZNSt3__121__tree_const_iteratorIcPNS_11__tree_nodeIcPvEElEC2B8ue170006EPNS_15__tree_end_nodeIPNS_16__tree_node_baseIS2_EEEE, symObjAddr: 0x37CC, symBinAddr: 0x100004848, symSize: 0x20 }
  - { offsetInCU: 0x12505, offset: 0x12505, size: 0x8, addend: 0x0, symName: __ZNKSt3__16__treeIcNS_4lessIcEENS_9allocatorIcEEE3endB8ue170006Ev, symObjAddr: 0x37EC, symBinAddr: 0x100004868, symSize: 0x34 }
  - { offsetInCU: 0x1252A, offset: 0x1252A, size: 0x8, addend: 0x0, symName: __ZNSt3__16__treeIcNS_4lessIcEENS_9allocatorIcEEED2Ev, symObjAddr: 0x3820, symBinAddr: 0x10000489C, symSize: 0x38 }
  - { offsetInCU: 0x12555, offset: 0x12555, size: 0x8, addend: 0x0, symName: __ZNSt3__16__treeIcNS_4lessIcEENS_9allocatorIcEEE7destroyEPNS_11__tree_nodeIcPvEE, symObjAddr: 0x3858, symBinAddr: 0x1000048D4, symSize: 0x9C }
  - { offsetInCU: 0x125A7, offset: 0x125A7, size: 0x8, addend: 0x0, symName: __ZNSt3__14pairIKcNS_3setIcNS_4lessIcEENS_9allocatorIcEEEEED2Ev, symObjAddr: 0x38F4, symBinAddr: 0x100004970, symSize: 0x30 }
  - { offsetInCU: 0x125D2, offset: 0x125D2, size: 0x8, addend: 0x0, symName: __ZNSt3__13setIcNS_4lessIcEENS_9allocatorIcEEED1B8ue170006Ev, symObjAddr: 0x3924, symBinAddr: 0x1000049A0, symSize: 0x2C }
  - { offsetInCU: 0x125FB, offset: 0x125FB, size: 0x8, addend: 0x0, symName: __ZNSt3__13setIcNS_4lessIcEENS_9allocatorIcEEED2B8ue170006Ev, symObjAddr: 0x3950, symBinAddr: 0x1000049CC, symSize: 0x2C }
  - { offsetInCU: 0x12624, offset: 0x12624, size: 0x8, addend: 0x0, symName: __ZN4RuleC2EcNSt3__112basic_stringIcNS0_11char_traitsIcEENS0_9allocatorIcEEEE, symObjAddr: 0x397C, symBinAddr: 0x1000049F8, symSize: 0x88 }
  - { offsetInCU: 0x1266A, offset: 0x1266A, size: 0x8, addend: 0x0, symName: __ZNSt3__112basic_stringIcNS_11char_traitsIcEENS_9allocatorIcEEEC1B8ue170006Ev, symObjAddr: 0x3A04, symBinAddr: 0x100004A80, symSize: 0x2C }
  - { offsetInCU: 0x12693, offset: 0x12693, size: 0x8, addend: 0x0, symName: __ZNSt3__112basic_stringIcNS_11char_traitsIcEENS_9allocatorIcEEEC2B8ue170006Ev, symObjAddr: 0x3A30, symBinAddr: 0x100004AAC, symSize: 0x3C }
  - { offsetInCU: 0x126BC, offset: 0x126BC, size: 0x8, addend: 0x0, symName: __ZNSt3__117__compressed_pairINS_12basic_stringIcNS_11char_traitsIcEENS_9allocatorIcEEE5__repES5_EC1B8ue170006INS_18__default_init_tagESA_EEOT_OT0_, symObjAddr: 0x3A6C, symBinAddr: 0x100004AE8, symSize: 0x3C }
  - { offsetInCU: 0x12713, offset: 0x12713, size: 0x8, addend: 0x0, symName: __ZNSt3__112basic_stringIcNS_11char_traitsIcEENS_9allocatorIcEEE14__default_initB8ue170006Ev, symObjAddr: 0x3AA8, symBinAddr: 0x100004B24, symSize: 0xB0 }
  - { offsetInCU: 0x12764, offset: 0x12764, size: 0x8, addend: 0x0, symName: __ZNSt3__117__compressed_pairINS_12basic_stringIcNS_11char_traitsIcEENS_9allocatorIcEEE5__repES5_EC2B8ue170006INS_18__default_init_tagESA_EEOT_OT0_, symObjAddr: 0x3B58, symBinAddr: 0x100004BD4, symSize: 0x3C }
  - { offsetInCU: 0x127BB, offset: 0x127BB, size: 0x8, addend: 0x0, symName: __ZNSt3__122__compressed_pair_elemINS_12basic_stringIcNS_11char_traitsIcEENS_9allocatorIcEEE5__repELi0ELb0EEC2B8ue170006ENS_18__default_init_tagE, symObjAddr: 0x3B94, symBinAddr: 0x100004C10, symSize: 0x14 }
  - { offsetInCU: 0x127EE, offset: 0x127EE, size: 0x8, addend: 0x0, symName: __ZNSt3__122__compressed_pair_elemINS_9allocatorIcEELi1ELb1EEC2B8ue170006ENS_18__default_init_tagE, symObjAddr: 0x3BA8, symBinAddr: 0x100004C24, symSize: 0x2C }
  - { offsetInCU: 0x12821, offset: 0x12821, size: 0x8, addend: 0x0, symName: __ZNSt3__19allocatorIcEC2B8ue170006Ev, symObjAddr: 0x3BD4, symBinAddr: 0x100004C50, symSize: 0x2C }
  - { offsetInCU: 0x1284A, offset: 0x1284A, size: 0x8, addend: 0x0, symName: __ZNSt3__116__non_trivial_ifILb1ENS_9allocatorIcEEEC2B8ue170006Ev, symObjAddr: 0x3C00, symBinAddr: 0x100004C7C, symSize: 0x14 }
  - { offsetInCU: 0x12873, offset: 0x12873, size: 0x8, addend: 0x0, symName: __ZNSt3__117__compressed_pairINS_12basic_stringIcNS_11char_traitsIcEENS_9allocatorIcEEE5__repES5_E5firstB8ue170006Ev, symObjAddr: 0x3C14, symBinAddr: 0x100004C90, symSize: 0x24 }
  - { offsetInCU: 0x12898, offset: 0x12898, size: 0x8, addend: 0x0, symName: __ZNSt3__112basic_stringIcNS_11char_traitsIcEENS_9allocatorIcEEE11__recommendB8ue170006Em, symObjAddr: 0x3C38, symBinAddr: 0x100004CB4, symSize: 0x9C }
  - { offsetInCU: 0x128CB, offset: 0x128CB, size: 0x8, addend: 0x0, symName: __ZNSt3__116allocator_traitsINS_9allocatorIcEEE8allocateB8ue170006ERS2_m, symObjAddr: 0x3CD4, symBinAddr: 0x100004D50, symSize: 0x2C }
  - { offsetInCU: 0x128FE, offset: 0x128FE, size: 0x8, addend: 0x0, symName: __ZNSt3__112basic_stringIcNS_11char_traitsIcEENS_9allocatorIcEEE7__allocB8ue170006Ev, symObjAddr: 0x3D00, symBinAddr: 0x100004D7C, symSize: 0x24 }
  - { offsetInCU: 0x12923, offset: 0x12923, size: 0x8, addend: 0x0, symName: __ZNSt3__112basic_stringIcNS_11char_traitsIcEENS_9allocatorIcEEE16__begin_lifetimeB8ue170006EPcm, symObjAddr: 0x3D24, symBinAddr: 0x100004DA0, symSize: 0x14 }
  - { offsetInCU: 0x12956, offset: 0x12956, size: 0x8, addend: 0x0, symName: __ZNSt3__112basic_stringIcNS_11char_traitsIcEENS_9allocatorIcEEE18__set_long_pointerB8ue170006EPc, symObjAddr: 0x3D38, symBinAddr: 0x100004DB4, symSize: 0x38 }
  - { offsetInCU: 0x1298A, offset: 0x1298A, size: 0x8, addend: 0x0, symName: __ZNSt3__112basic_stringIcNS_11char_traitsIcEENS_9allocatorIcEEE14__set_long_capB8ue170006Em, symObjAddr: 0x3D70, symBinAddr: 0x100004DEC, symSize: 0x70 }
  - { offsetInCU: 0x129BE, offset: 0x129BE, size: 0x8, addend: 0x0, symName: __ZNSt3__112basic_stringIcNS_11char_traitsIcEENS_9allocatorIcEEE15__set_long_sizeB8ue170006Em, symObjAddr: 0x3DE0, symBinAddr: 0x100004E5C, symSize: 0x38 }
  - { offsetInCU: 0x129F2, offset: 0x129F2, size: 0x8, addend: 0x0, symName: __ZNSt3__122__compressed_pair_elemINS_12basic_stringIcNS_11char_traitsIcEENS_9allocatorIcEEE5__repELi0ELb0EE5__getB8ue170006Ev, symObjAddr: 0x3E18, symBinAddr: 0x100004E94, symSize: 0x14 }
  - { offsetInCU: 0x12A17, offset: 0x12A17, size: 0x8, addend: 0x0, symName: __ZNSt3__112basic_stringIcNS_11char_traitsIcEENS_9allocatorIcEEE10__align_itB8ue170006ILm16EEEmm, symObjAddr: 0x3E2C, symBinAddr: 0x100004EA8, symSize: 0x1C }
  - { offsetInCU: 0x12A45, offset: 0x12A45, size: 0x8, addend: 0x0, symName: __ZNSt3__19allocatorIcE8allocateB8ue170006Em, symObjAddr: 0x3E48, symBinAddr: 0x100004EC4, symSize: 0x84 }
  - { offsetInCU: 0x12A82, offset: 0x12A82, size: 0x8, addend: 0x0, symName: __ZNSt3__116allocator_traitsINS_9allocatorIcEEE8max_sizeB8ue170006IS2_vEEmRKS2_, symObjAddr: 0x3ECC, symBinAddr: 0x100004F48, symSize: 0x24 }
  - { offsetInCU: 0x12AB0, offset: 0x12AB0, size: 0x8, addend: 0x0, symName: __ZNKSt3__19allocatorIcE8max_sizeB8ue170006Ev, symObjAddr: 0x3EF0, symBinAddr: 0x100004F6C, symSize: 0x14 }
  - { offsetInCU: 0x12AD5, offset: 0x12AD5, size: 0x8, addend: 0x0, symName: __ZNSt3__117__compressed_pairINS_12basic_stringIcNS_11char_traitsIcEENS_9allocatorIcEEE5__repES5_E6secondB8ue170006Ev, symObjAddr: 0x3F04, symBinAddr: 0x100004F80, symSize: 0x24 }
  - { offsetInCU: 0x12AFA, offset: 0x12AFA, size: 0x8, addend: 0x0, symName: __ZNSt3__122__compressed_pair_elemINS_9allocatorIcEELi1ELb1EE5__getB8ue170006Ev, symObjAddr: 0x3F28, symBinAddr: 0x100004FA4, symSize: 0x14 }
  - { offsetInCU: 0x12B1F, offset: 0x12B1F, size: 0x8, addend: 0x0, symName: __ZNSt3__16vectorI4RuleNS_9allocatorIS1_EEE11__make_iterB8ue170006EPS1_, symObjAddr: 0x3F3C, symBinAddr: 0x100004FB8, symSize: 0x30 }
  - { offsetInCU: 0x12B53, offset: 0x12B53, size: 0x8, addend: 0x0, symName: __ZNSt3__111__wrap_iterIP4RuleEC1B8ue170006ES2_, symObjAddr: 0x3F6C, symBinAddr: 0x100004FE8, symSize: 0x34 }
  - { offsetInCU: 0x12B8A, offset: 0x12B8A, size: 0x8, addend: 0x0, symName: __ZNSt3__111__wrap_iterIP4RuleEC2B8ue170006ES2_, symObjAddr: 0x3FA0, symBinAddr: 0x10000501C, symSize: 0x20 }
  - { offsetInCU: 0x12BC1, offset: 0x12BC1, size: 0x8, addend: 0x0, symName: __ZNKSt3__111__wrap_iterIP4RuleE4baseB8ue170006Ev, symObjAddr: 0x4008, symBinAddr: 0x100005084, symSize: 0x18 }
  - { offsetInCU: 0x12BE6, offset: 0x12BE6, size: 0x8, addend: 0x0, symName: __ZNSt3__111char_traitsIcE6lengthB8ue170006EPKc, symObjAddr: 0x4214, symBinAddr: 0x100005290, symSize: 0x48 }
  - { offsetInCU: 0x12C27, offset: 0x12C27, size: 0x8, addend: 0x0, symName: __ZNKSt3__113basic_ostreamIcNS_11char_traitsIcEEE6sentrycvbB8ue170006Ev, symObjAddr: 0x425C, symBinAddr: 0x1000052D8, symSize: 0x1C }
  - { offsetInCU: 0x12C4C, offset: 0x12C4C, size: 0x8, addend: 0x0, symName: __ZNSt3__119ostreambuf_iteratorIcNS_11char_traitsIcEEEC1B8ue170006ERNS_13basic_ostreamIcS2_EE, symObjAddr: 0x44C0, symBinAddr: 0x10000553C, symSize: 0x34 }
  - { offsetInCU: 0x12C83, offset: 0x12C83, size: 0x8, addend: 0x0, symName: __ZNKSt3__18ios_base5flagsB8ue170006Ev, symObjAddr: 0x44F4, symBinAddr: 0x100005570, symSize: 0x18 }
  - { offsetInCU: 0x12CAA, offset: 0x12CAA, size: 0x8, addend: 0x0, symName: __ZNKSt3__19basic_iosIcNS_11char_traitsIcEEE4fillB8ue170006Ev, symObjAddr: 0x450C, symBinAddr: 0x100005588, symSize: 0x64 }
  - { offsetInCU: 0x12CD0, offset: 0x12CD0, size: 0x8, addend: 0x0, symName: __ZNKSt3__119ostreambuf_iteratorIcNS_11char_traitsIcEEE6failedB8ue170006Ev, symObjAddr: 0x4570, symBinAddr: 0x1000055EC, symSize: 0x24 }
  - { offsetInCU: 0x12CF5, offset: 0x12CF5, size: 0x8, addend: 0x0, symName: __ZNSt3__19basic_iosIcNS_11char_traitsIcEEE8setstateB8ue170006Ej, symObjAddr: 0x4594, symBinAddr: 0x100005610, symSize: 0x2C }
  - { offsetInCU: 0x12D29, offset: 0x12D29, size: 0x8, addend: 0x0, symName: __ZNKSt3__18ios_base5widthB8ue170006Ev, symObjAddr: 0x45C0, symBinAddr: 0x10000563C, symSize: 0x18 }
  - { offsetInCU: 0x12D50, offset: 0x12D50, size: 0x8, addend: 0x0, symName: __ZNSt3__115basic_streambufIcNS_11char_traitsIcEEE5sputnB8ue170006EPKcl, symObjAddr: 0x45D8, symBinAddr: 0x100005654, symSize: 0x3C }
  - { offsetInCU: 0x12D91, offset: 0x12D91, size: 0x8, addend: 0x0, symName: __ZNSt3__112basic_stringIcNS_11char_traitsIcEENS_9allocatorIcEEEC1B8ue170006Emc, symObjAddr: 0x4614, symBinAddr: 0x100005690, symSize: 0x3C }
  - { offsetInCU: 0x12DD8, offset: 0x12DD8, size: 0x8, addend: 0x0, symName: __ZNKSt3__112basic_stringIcNS_11char_traitsIcEENS_9allocatorIcEEE4dataB8ue170006Ev, symObjAddr: 0x4650, symBinAddr: 0x1000056CC, symSize: 0x28 }
  - { offsetInCU: 0x12DFD, offset: 0x12DFD, size: 0x8, addend: 0x0, symName: __ZNSt3__18ios_base5widthB8ue170006El, symObjAddr: 0x4678, symBinAddr: 0x1000056F4, symSize: 0x2C }
  - { offsetInCU: 0x12E42, offset: 0x12E42, size: 0x8, addend: 0x0, symName: __ZNSt3__112basic_stringIcNS_11char_traitsIcEENS_9allocatorIcEEEC2B8ue170006Emc, symObjAddr: 0x46A4, symBinAddr: 0x100005720, symSize: 0x4C }
  - { offsetInCU: 0x12E89, offset: 0x12E89, size: 0x8, addend: 0x0, symName: __ZNKSt3__112basic_stringIcNS_11char_traitsIcEENS_9allocatorIcEEE13__get_pointerB8ue170006Ev, symObjAddr: 0x4704, symBinAddr: 0x100005780, symSize: 0x54 }
  - { offsetInCU: 0x12EAE, offset: 0x12EAE, size: 0x8, addend: 0x0, symName: __ZNKSt3__112basic_stringIcNS_11char_traitsIcEENS_9allocatorIcEEE9__is_longB8ue170006Ev, symObjAddr: 0x4758, symBinAddr: 0x1000057D4, symSize: 0x74 }
  - { offsetInCU: 0x12ED3, offset: 0x12ED3, size: 0x8, addend: 0x0, symName: __ZNKSt3__112basic_stringIcNS_11char_traitsIcEENS_9allocatorIcEEE18__get_long_pointerB8ue170006Ev, symObjAddr: 0x47CC, symBinAddr: 0x100005848, symSize: 0x28 }
  - { offsetInCU: 0x12EF8, offset: 0x12EF8, size: 0x8, addend: 0x0, symName: __ZNKSt3__112basic_stringIcNS_11char_traitsIcEENS_9allocatorIcEEE19__get_short_pointerB8ue170006Ev, symObjAddr: 0x47F4, symBinAddr: 0x100005870, symSize: 0x28 }
  - { offsetInCU: 0x12F1D, offset: 0x12F1D, size: 0x8, addend: 0x0, symName: __ZNKSt3__117__compressed_pairINS_12basic_stringIcNS_11char_traitsIcEENS_9allocatorIcEEE5__repES5_E5firstB8ue170006Ev, symObjAddr: 0x481C, symBinAddr: 0x100005898, symSize: 0x24 }
  - { offsetInCU: 0x12F42, offset: 0x12F42, size: 0x8, addend: 0x0, symName: __ZNKSt3__122__compressed_pair_elemINS_12basic_stringIcNS_11char_traitsIcEENS_9allocatorIcEEE5__repELi0ELb0EE5__getB8ue170006Ev, symObjAddr: 0x4840, symBinAddr: 0x1000058BC, symSize: 0x14 }
  - { offsetInCU: 0x12F67, offset: 0x12F67, size: 0x8, addend: 0x0, symName: __ZNSt3__114pointer_traitsIPKcE10pointer_toB8ue170006ERS1_, symObjAddr: 0x4854, symBinAddr: 0x1000058D0, symSize: 0x14 }
  - { offsetInCU: 0x12F8A, offset: 0x12F8A, size: 0x8, addend: 0x0, symName: __ZNSt3__119ostreambuf_iteratorIcNS_11char_traitsIcEEEC2B8ue170006ERNS_13basic_ostreamIcS2_EE, symObjAddr: 0x4868, symBinAddr: 0x1000058E4, symSize: 0x68 }
  - { offsetInCU: 0x12FC1, offset: 0x12FC1, size: 0x8, addend: 0x0, symName: __ZNKSt3__19basic_iosIcNS_11char_traitsIcEEE5rdbufB8ue170006Ev, symObjAddr: 0x48D0, symBinAddr: 0x10000594C, symSize: 0x24 }
  - { offsetInCU: 0x12FE7, offset: 0x12FE7, size: 0x8, addend: 0x0, symName: __ZNKSt3__18ios_base5rdbufB8ue170006Ev, symObjAddr: 0x48F4, symBinAddr: 0x100005970, symSize: 0x18 }
  - { offsetInCU: 0x1300C, offset: 0x1300C, size: 0x8, addend: 0x0, symName: __ZNSt3__111char_traitsIcE11eq_int_typeB8ue170006Eii, symObjAddr: 0x490C, symBinAddr: 0x100005988, symSize: 0x28 }
  - { offsetInCU: 0x1303F, offset: 0x1303F, size: 0x8, addend: 0x0, symName: __ZNSt3__111char_traitsIcE3eofB8ue170006Ev, symObjAddr: 0x4934, symBinAddr: 0x1000059B0, symSize: 0x8 }
  - { offsetInCU: 0x13053, offset: 0x13053, size: 0x8, addend: 0x0, symName: __ZNKSt3__19basic_iosIcNS_11char_traitsIcEEE5widenB8ue170006Ec, symObjAddr: 0x493C, symBinAddr: 0x1000059B8, symSize: 0x8C }
  - { offsetInCU: 0x130BF, offset: 0x130BF, size: 0x8, addend: 0x0, symName: __ZNKSt3__15ctypeIcE5widenB8ue170006Ec, symObjAddr: 0x49F4, symBinAddr: 0x100005A70, symSize: 0x38 }
  - { offsetInCU: 0x130F3, offset: 0x130F3, size: 0x8, addend: 0x0, symName: __ZNSt3__18ios_base8setstateB8ue170006Ej, symObjAddr: 0x4A2C, symBinAddr: 0x100005AA8, symSize: 0x34 }
  - { offsetInCU: 0x13128, offset: 0x13128, size: 0x8, addend: 0x0, symName: __ZNSt3__112basic_stringIcNS_11char_traitsIcEENS_9allocatorIcEEE13__get_pointerB8ue170006Ev, symObjAddr: 0x4A84, symBinAddr: 0x100005B00, symSize: 0x54 }
  - { offsetInCU: 0x1314D, offset: 0x1314D, size: 0x8, addend: 0x0, symName: __ZNSt3__112basic_stringIcNS_11char_traitsIcEENS_9allocatorIcEEE18__get_long_pointerB8ue170006Ev, symObjAddr: 0x4AD8, symBinAddr: 0x100005B54, symSize: 0x28 }
  - { offsetInCU: 0x13172, offset: 0x13172, size: 0x8, addend: 0x0, symName: __ZNSt3__112basic_stringIcNS_11char_traitsIcEENS_9allocatorIcEEE19__get_short_pointerB8ue170006Ev, symObjAddr: 0x4B00, symBinAddr: 0x100005B7C, symSize: 0x28 }
  - { offsetInCU: 0x13197, offset: 0x13197, size: 0x8, addend: 0x0, symName: __ZNSt3__114pointer_traitsIPcE10pointer_toB8ue170006ERc, symObjAddr: 0x4B28, symBinAddr: 0x100005BA4, symSize: 0x14 }
  - { offsetInCU: 0x131BA, offset: 0x131BA, size: 0x8, addend: 0x0, symName: __ZNSt3__16__treeINS_12__value_typeIcNS_3setIcNS_4lessIcEENS_9allocatorIcEEEEEENS_19__map_value_compareIcS8_S4_Lb1EEENS5_IS8_EEE12__find_equalIcEERPNS_16__tree_node_baseIPvEERPNS_15__tree_end_nodeISH_EERKT_, symObjAddr: 0x4B3C, symBinAddr: 0x100005BB8, symSize: 0x184 }
  - { offsetInCU: 0x13225, offset: 0x13225, size: 0x8, addend: 0x0, symName: __ZNSt3__13mapIcNS_3setIcNS_4lessIcEENS_9allocatorIcEEEES3_NS4_INS_4pairIKcS6_EEEEE25__construct_node_with_keyERS8_, symObjAddr: 0x4CC0, symBinAddr: 0x100005D3C, symSize: 0x154 }
  - { offsetInCU: 0x13279, offset: 0x13279, size: 0x8, addend: 0x0, symName: __ZNSt3__16__treeINS_12__value_typeIcNS_3setIcNS_4lessIcEENS_9allocatorIcEEEEEENS_19__map_value_compareIcS8_S4_Lb1EEENS5_IS8_EEE16__insert_node_atEPNS_15__tree_end_nodeIPNS_16__tree_node_baseIPvEEEERSH_SH_, symObjAddr: 0x4E14, symBinAddr: 0x100005E90, symSize: 0xCC }
  - { offsetInCU: 0x132CC, offset: 0x132CC, size: 0x8, addend: 0x0, symName: __ZNKSt3__110unique_ptrINS_11__tree_nodeINS_12__value_typeIcNS_3setIcNS_4lessIcEENS_9allocatorIcEEEEEEPvEENS_21__map_node_destructorINS6_ISB_EEEEE3getB8ue170006Ev, symObjAddr: 0x4EE0, symBinAddr: 0x100005F5C, symSize: 0x28 }
  - { offsetInCU: 0x132F1, offset: 0x132F1, size: 0x8, addend: 0x0, symName: __ZNSt3__110unique_ptrINS_11__tree_nodeINS_12__value_typeIcNS_3setIcNS_4lessIcEENS_9allocatorIcEEEEEEPvEENS_21__map_node_destructorINS6_ISB_EEEEE7releaseB8ue170006Ev, symObjAddr: 0x4F08, symBinAddr: 0x100005F84, symSize: 0x44 }
  - { offsetInCU: 0x13325, offset: 0x13325, size: 0x8, addend: 0x0, symName: __ZNSt3__110unique_ptrINS_11__tree_nodeINS_12__value_typeIcNS_3setIcNS_4lessIcEENS_9allocatorIcEEEEEEPvEENS_21__map_node_destructorINS6_ISB_EEEEED1B8ue170006Ev, symObjAddr: 0x4F4C, symBinAddr: 0x100005FC8, symSize: 0x2C }
  - { offsetInCU: 0x1334E, offset: 0x1334E, size: 0x8, addend: 0x0, symName: __ZNSt3__112__value_typeIcNS_3setIcNS_4lessIcEENS_9allocatorIcEEEEE11__get_valueB8ue170006Ev, symObjAddr: 0x4F78, symBinAddr: 0x100005FF4, symSize: 0x14 }
  - { offsetInCU: 0x13373, offset: 0x13373, size: 0x8, addend: 0x0, symName: __ZNKSt3__16__treeINS_12__value_typeIcNS_3setIcNS_4lessIcEENS_9allocatorIcEEEEEENS_19__map_value_compareIcS8_S4_Lb1EEENS5_IS8_EEE6__rootB8ue170006Ev, symObjAddr: 0x4F8C, symBinAddr: 0x100006008, symSize: 0x28 }
  - { offsetInCU: 0x13398, offset: 0x13398, size: 0x8, addend: 0x0, symName: __ZNKSt3__16__treeINS_12__value_typeIcNS_3setIcNS_4lessIcEENS_9allocatorIcEEEEEENS_19__map_value_compareIcS8_S4_Lb1EEENS5_IS8_EEE10__root_ptrB8ue170006Ev, symObjAddr: 0x4FB4, symBinAddr: 0x100006030, symSize: 0x24 }
  - { offsetInCU: 0x133BD, offset: 0x133BD, size: 0x8, addend: 0x0, symName: __ZNSt3__16__treeINS_12__value_typeIcNS_3setIcNS_4lessIcEENS_9allocatorIcEEEEEENS_19__map_value_compareIcS8_S4_Lb1EEENS5_IS8_EEE10value_compB8ue170006Ev, symObjAddr: 0x4FD8, symBinAddr: 0x100006054, symSize: 0x28 }
  - { offsetInCU: 0x133E2, offset: 0x133E2, size: 0x8, addend: 0x0, symName: __ZNKSt3__119__map_value_compareIcNS_12__value_typeIcNS_3setIcNS_4lessIcEENS_9allocatorIcEEEEEES4_Lb1EEclB8ue170006ERKcRKS8_, symObjAddr: 0x5000, symBinAddr: 0x10000607C, symSize: 0x50 }
  - { offsetInCU: 0x13425, offset: 0x13425, size: 0x8, addend: 0x0, symName: __ZNKSt3__119__map_value_compareIcNS_12__value_typeIcNS_3setIcNS_4lessIcEENS_9allocatorIcEEEEEES4_Lb1EEclB8ue170006ERKS8_RKc, symObjAddr: 0x5050, symBinAddr: 0x1000060CC, symSize: 0x48 }
  - { offsetInCU: 0x13468, offset: 0x13468, size: 0x8, addend: 0x0, symName: __ZNSt3__16__treeINS_12__value_typeIcNS_3setIcNS_4lessIcEENS_9allocatorIcEEEEEENS_19__map_value_compareIcS8_S4_Lb1EEENS5_IS8_EEE10__end_nodeB8ue170006Ev, symObjAddr: 0x5098, symBinAddr: 0x100006114, symSize: 0x2C }
  - { offsetInCU: 0x1348D, offset: 0x1348D, size: 0x8, addend: 0x0, symName: __ZNKSt3__16__treeINS_12__value_typeIcNS_3setIcNS_4lessIcEENS_9allocatorIcEEEEEENS_19__map_value_compareIcS8_S4_Lb1EEENS5_IS8_EEE10__end_nodeB8ue170006Ev, symObjAddr: 0x50C4, symBinAddr: 0x100006140, symSize: 0x2C }
  - { offsetInCU: 0x134B2, offset: 0x134B2, size: 0x8, addend: 0x0, symName: __ZNKSt3__117__compressed_pairINS_15__tree_end_nodeIPNS_16__tree_node_baseIPvEEEENS_9allocatorINS_11__tree_nodeINS_12__value_typeIcNS_3setIcNS_4lessIcEENS7_IcEEEEEES3_EEEEE5firstB8ue170006Ev, symObjAddr: 0x50F0, symBinAddr: 0x10000616C, symSize: 0x24 }
  - { offsetInCU: 0x134D7, offset: 0x134D7, size: 0x8, addend: 0x0, symName: __ZNSt3__117__compressed_pairImNS_19__map_value_compareIcNS_12__value_typeIcNS_3setIcNS_4lessIcEENS_9allocatorIcEEEEEES5_Lb1EEEE6secondB8ue170006Ev, symObjAddr: 0x5114, symBinAddr: 0x100006190, symSize: 0x24 }
  - { offsetInCU: 0x134FC, offset: 0x134FC, size: 0x8, addend: 0x0, symName: __ZNSt3__122__compressed_pair_elemINS_19__map_value_compareIcNS_12__value_typeIcNS_3setIcNS_4lessIcEENS_9allocatorIcEEEEEES5_Lb1EEELi1ELb1EE5__getB8ue170006Ev, symObjAddr: 0x5138, symBinAddr: 0x1000061B4, symSize: 0x14 }
  - { offsetInCU: 0x13521, offset: 0x13521, size: 0x8, addend: 0x0, symName: __ZNKSt3__112__value_typeIcNS_3setIcNS_4lessIcEENS_9allocatorIcEEEEE11__get_valueB8ue170006Ev, symObjAddr: 0x514C, symBinAddr: 0x1000061C8, symSize: 0x14 }
  - { offsetInCU: 0x13546, offset: 0x13546, size: 0x8, addend: 0x0, symName: __ZNSt3__117__compressed_pairINS_15__tree_end_nodeIPNS_16__tree_node_baseIPvEEEENS_9allocatorINS_11__tree_nodeINS_12__value_typeIcNS_3setIcNS_4lessIcEENS7_IcEEEEEES3_EEEEE5firstB8ue170006Ev, symObjAddr: 0x5160, symBinAddr: 0x1000061DC, symSize: 0x24 }
  - { offsetInCU: 0x1356B, offset: 0x1356B, size: 0x8, addend: 0x0, symName: __ZNSt3__16__treeINS_12__value_typeIcNS_3setIcNS_4lessIcEENS_9allocatorIcEEEEEENS_19__map_value_compareIcS8_S4_Lb1EEENS5_IS8_EEE12__node_allocB8ue170006Ev, symObjAddr: 0x5184, symBinAddr: 0x100006200, symSize: 0x28 }
  - { offsetInCU: 0x13590, offset: 0x13590, size: 0x8, addend: 0x0, symName: __ZNSt3__116allocator_traitsINS_9allocatorINS_11__tree_nodeINS_12__value_typeIcNS_3setIcNS_4lessIcEENS1_IcEEEEEEPvEEEEE8allocateB8ue170006ERSC_m, symObjAddr: 0x51AC, symBinAddr: 0x100006228, symSize: 0x2C }
  - { offsetInCU: 0x135C3, offset: 0x135C3, size: 0x8, addend: 0x0, symName: __ZNSt3__121__map_node_destructorINS_9allocatorINS_11__tree_nodeINS_12__value_typeIcNS_3setIcNS_4lessIcEENS1_IcEEEEEEPvEEEEEC1B8ue170006ERSC_, symObjAddr: 0x51D8, symBinAddr: 0x100006254, symSize: 0x34 }
  - { offsetInCU: 0x13600, offset: 0x13600, size: 0x8, addend: 0x0, symName: __ZNSt3__110unique_ptrINS_11__tree_nodeINS_12__value_typeIcNS_3setIcNS_4lessIcEENS_9allocatorIcEEEEEEPvEENS_21__map_node_destructorINS6_ISB_EEEEEC1B8ue170006ILb1EvEEPSB_NS_16__dependent_typeINS_27__unique_ptr_deleter_sfinaeISE_EEXT_EE20__good_rval_ref_typeE, symObjAddr: 0x520C, symBinAddr: 0x100006288, symSize: 0x3C }
  - { offsetInCU: 0x13650, offset: 0x13650, size: 0x8, addend: 0x0, symName: __ZNSt3__116allocator_traitsINS_9allocatorINS_11__tree_nodeINS_12__value_typeIcNS_3setIcNS_4lessIcEENS1_IcEEEEEEPvEEEEE9constructB8ue170006IKcJRSF_EvEEvRSC_PT_DpOT0_, symObjAddr: 0x5248, symBinAddr: 0x1000062C4, symSize: 0x34 }
  - { offsetInCU: 0x136A7, offset: 0x136A7, size: 0x8, addend: 0x0, symName: __ZNKSt3__110unique_ptrINS_11__tree_nodeINS_12__value_typeIcNS_3setIcNS_4lessIcEENS_9allocatorIcEEEEEEPvEENS_21__map_node_destructorINS6_ISB_EEEEEptB8ue170006Ev, symObjAddr: 0x527C, symBinAddr: 0x1000062F8, symSize: 0x28 }
  - { offsetInCU: 0x136CC, offset: 0x136CC, size: 0x8, addend: 0x0, symName: __ZNSt3__110unique_ptrINS_11__tree_nodeINS_12__value_typeIcNS_3setIcNS_4lessIcEENS_9allocatorIcEEEEEEPvEENS_21__map_node_destructorINS6_ISB_EEEEE11get_deleterB8ue170006Ev, symObjAddr: 0x52A4, symBinAddr: 0x100006320, symSize: 0x24 }
  - { offsetInCU: 0x136F6, offset: 0x136F6, size: 0x8, addend: 0x0, symName: __ZNSt3__116allocator_traitsINS_9allocatorINS_11__tree_nodeINS_12__value_typeIcNS_3setIcNS_4lessIcEENS1_IcEEEEEEPvEEEEE9constructB8ue170006IS8_JEvEEvRSC_PT_DpOT0_, symObjAddr: 0x52C8, symBinAddr: 0x100006344, symSize: 0x2C }
  - { offsetInCU: 0x13738, offset: 0x13738, size: 0x8, addend: 0x0, symName: __ZNSt3__117__compressed_pairINS_15__tree_end_nodeIPNS_16__tree_node_baseIPvEEEENS_9allocatorINS_11__tree_nodeINS_12__value_typeIcNS_3setIcNS_4lessIcEENS7_IcEEEEEES3_EEEEE6secondB8ue170006Ev, symObjAddr: 0x52F4, symBinAddr: 0x100006370, symSize: 0x24 }
  - { offsetInCU: 0x1375D, offset: 0x1375D, size: 0x8, addend: 0x0, symName: __ZNSt3__122__compressed_pair_elemINS_9allocatorINS_11__tree_nodeINS_12__value_typeIcNS_3setIcNS_4lessIcEENS1_IcEEEEEEPvEEEELi1ELb1EE5__getB8ue170006Ev, symObjAddr: 0x5318, symBinAddr: 0x100006394, symSize: 0x14 }
  - { offsetInCU: 0x13782, offset: 0x13782, size: 0x8, addend: 0x0, symName: __ZNSt3__19allocatorINS_11__tree_nodeINS_12__value_typeIcNS_3setIcNS_4lessIcEENS0_IcEEEEEEPvEEE8allocateB8ue170006Em, symObjAddr: 0x532C, symBinAddr: 0x1000063A8, symSize: 0x84 }
  - { offsetInCU: 0x137BF, offset: 0x137BF, size: 0x8, addend: 0x0, symName: __ZNSt3__116allocator_traitsINS_9allocatorINS_11__tree_nodeINS_12__value_typeIcNS_3setIcNS_4lessIcEENS1_IcEEEEEEPvEEEEE8max_sizeB8ue170006ISC_vEEmRKSC_, symObjAddr: 0x53B0, symBinAddr: 0x10000642C, symSize: 0x24 }
  - { offsetInCU: 0x137ED, offset: 0x137ED, size: 0x8, addend: 0x0, symName: __ZNKSt3__19allocatorINS_11__tree_nodeINS_12__value_typeIcNS_3setIcNS_4lessIcEENS0_IcEEEEEEPvEEE8max_sizeB8ue170006Ev, symObjAddr: 0x53D4, symBinAddr: 0x100006450, symSize: 0x14 }
  - { offsetInCU: 0x13812, offset: 0x13812, size: 0x8, addend: 0x0, symName: __ZNSt3__121__map_node_destructorINS_9allocatorINS_11__tree_nodeINS_12__value_typeIcNS_3setIcNS_4lessIcEENS1_IcEEEEEEPvEEEEEC2B8ue170006ERSC_, symObjAddr: 0x53E8, symBinAddr: 0x100006464, symSize: 0x28 }
  - { offsetInCU: 0x1384A, offset: 0x1384A, size: 0x8, addend: 0x0, symName: __ZNSt3__110unique_ptrINS_11__tree_nodeINS_12__value_typeIcNS_3setIcNS_4lessIcEENS_9allocatorIcEEEEEEPvEENS_21__map_node_destructorINS6_ISB_EEEEEC2B8ue170006ILb1EvEEPSB_NS_16__dependent_typeINS_27__unique_ptr_deleter_sfinaeISE_EEXT_EE20__good_rval_ref_typeE, symObjAddr: 0x5410, symBinAddr: 0x10000648C, symSize: 0x5C }
  - { offsetInCU: 0x1389A, offset: 0x1389A, size: 0x8, addend: 0x0, symName: __ZNSt3__117__compressed_pairIPNS_11__tree_nodeINS_12__value_typeIcNS_3setIcNS_4lessIcEENS_9allocatorIcEEEEEEPvEENS_21__map_node_destructorINS6_ISB_EEEEEC1B8ue170006IRSC_SF_EEOT_OT0_, symObjAddr: 0x546C, symBinAddr: 0x1000064E8, symSize: 0x3C }
  - { offsetInCU: 0x138F1, offset: 0x138F1, size: 0x8, addend: 0x0, symName: __ZNSt3__117__compressed_pairIPNS_11__tree_nodeINS_12__value_typeIcNS_3setIcNS_4lessIcEENS_9allocatorIcEEEEEEPvEENS_21__map_node_destructorINS6_ISB_EEEEEC2B8ue170006IRSC_SF_EEOT_OT0_, symObjAddr: 0x54A8, symBinAddr: 0x100006524, symSize: 0x48 }
  - { offsetInCU: 0x13948, offset: 0x13948, size: 0x8, addend: 0x0, symName: __ZNSt3__122__compressed_pair_elemIPNS_11__tree_nodeINS_12__value_typeIcNS_3setIcNS_4lessIcEENS_9allocatorIcEEEEEEPvEELi0ELb0EEC2B8ue170006IRSC_vEEOT_, symObjAddr: 0x54F0, symBinAddr: 0x10000656C, symSize: 0x24 }
  - { offsetInCU: 0x13989, offset: 0x13989, size: 0x8, addend: 0x0, symName: __ZNSt3__122__compressed_pair_elemINS_21__map_node_destructorINS_9allocatorINS_11__tree_nodeINS_12__value_typeIcNS_3setIcNS_4lessIcEENS2_IcEEEEEEPvEEEEEELi1ELb0EEC2B8ue170006ISE_vEEOT_, symObjAddr: 0x5514, symBinAddr: 0x100006590, symSize: 0x24 }
  - { offsetInCU: 0x139CA, offset: 0x139CA, size: 0x8, addend: 0x0, symName: __ZNSt3__19allocatorINS_11__tree_nodeINS_12__value_typeIcNS_3setIcNS_4lessIcEENS0_IcEEEEEEPvEEE9constructB8ue170006IKcJRSD_EEEvPT_DpOT0_, symObjAddr: 0x5538, symBinAddr: 0x1000065B4, symSize: 0x28 }
  - { offsetInCU: 0x13A1F, offset: 0x13A1F, size: 0x8, addend: 0x0, symName: __ZNKSt3__117__compressed_pairIPNS_11__tree_nodeINS_12__value_typeIcNS_3setIcNS_4lessIcEENS_9allocatorIcEEEEEEPvEENS_21__map_node_destructorINS6_ISB_EEEEE5firstB8ue170006Ev, symObjAddr: 0x5560, symBinAddr: 0x1000065DC, symSize: 0x24 }
  - { offsetInCU: 0x13A44, offset: 0x13A44, size: 0x8, addend: 0x0, symName: __ZNKSt3__122__compressed_pair_elemIPNS_11__tree_nodeINS_12__value_typeIcNS_3setIcNS_4lessIcEENS_9allocatorIcEEEEEEPvEELi0ELb0EE5__getB8ue170006Ev, symObjAddr: 0x5584, symBinAddr: 0x100006600, symSize: 0x14 }
  - { offsetInCU: 0x13A69, offset: 0x13A69, size: 0x8, addend: 0x0, symName: __ZNSt3__117__compressed_pairIPNS_11__tree_nodeINS_12__value_typeIcNS_3setIcNS_4lessIcEENS_9allocatorIcEEEEEEPvEENS_21__map_node_destructorINS6_ISB_EEEEE6secondB8ue170006Ev, symObjAddr: 0x5598, symBinAddr: 0x100006614, symSize: 0x28 }
  - { offsetInCU: 0x13A8E, offset: 0x13A8E, size: 0x8, addend: 0x0, symName: __ZNSt3__122__compressed_pair_elemINS_21__map_node_destructorINS_9allocatorINS_11__tree_nodeINS_12__value_typeIcNS_3setIcNS_4lessIcEENS2_IcEEEEEEPvEEEEEELi1ELb0EE5__getB8ue170006Ev, symObjAddr: 0x55C0, symBinAddr: 0x10000663C, symSize: 0x14 }
  - { offsetInCU: 0x13AB3, offset: 0x13AB3, size: 0x8, addend: 0x0, symName: __ZNSt3__19allocatorINS_11__tree_nodeINS_12__value_typeIcNS_3setIcNS_4lessIcEENS0_IcEEEEEEPvEEE9constructB8ue170006IS7_JEEEvPT_DpOT0_, symObjAddr: 0x55D4, symBinAddr: 0x100006650, symSize: 0x28 }
  - { offsetInCU: 0x13AF4, offset: 0x13AF4, size: 0x8, addend: 0x0, symName: __ZNSt3__13setIcNS_4lessIcEENS_9allocatorIcEEEC1B8ue170006Ev, symObjAddr: 0x55FC, symBinAddr: 0x100006678, symSize: 0x2C }
  - { offsetInCU: 0x13B1D, offset: 0x13B1D, size: 0x8, addend: 0x0, symName: __ZNSt3__13setIcNS_4lessIcEENS_9allocatorIcEEEC2B8ue170006Ev, symObjAddr: 0x5628, symBinAddr: 0x1000066A4, symSize: 0x30 }
  - { offsetInCU: 0x13B46, offset: 0x13B46, size: 0x8, addend: 0x0, symName: __ZNSt3__16__treeIcNS_4lessIcEENS_9allocatorIcEEEC1ERKS2_, symObjAddr: 0x5658, symBinAddr: 0x1000066D4, symSize: 0x34 }
  - { offsetInCU: 0x13B80, offset: 0x13B80, size: 0x8, addend: 0x0, symName: __ZNSt3__16__treeIcNS_4lessIcEENS_9allocatorIcEEEC2ERKS2_, symObjAddr: 0x568C, symBinAddr: 0x100006708, symSize: 0x70 }
  - { offsetInCU: 0x13BBA, offset: 0x13BBA, size: 0x8, addend: 0x0, symName: __ZNSt3__117__compressed_pairINS_15__tree_end_nodeIPNS_16__tree_node_baseIPvEEEENS_9allocatorINS_11__tree_nodeIcS3_EEEEEC1B8ue170006ILb1EvEEv, symObjAddr: 0x56FC, symBinAddr: 0x100006778, symSize: 0x2C }
  - { offsetInCU: 0x13BEE, offset: 0x13BEE, size: 0x8, addend: 0x0, symName: __ZNSt3__117__compressed_pairINS_15__tree_end_nodeIPNS_16__tree_node_baseIPvEEEENS_9allocatorINS_11__tree_nodeIcS3_EEEEEC2B8ue170006ILb1EvEEv, symObjAddr: 0x5728, symBinAddr: 0x1000067A4, symSize: 0x34 }
  - { offsetInCU: 0x13C22, offset: 0x13C22, size: 0x8, addend: 0x0, symName: __ZNSt3__122__compressed_pair_elemINS_15__tree_end_nodeIPNS_16__tree_node_baseIPvEEEELi0ELb0EEC2B8ue170006ENS_16__value_init_tagE, symObjAddr: 0x575C, symBinAddr: 0x1000067D8, symSize: 0x2C }
  - { offsetInCU: 0x13C55, offset: 0x13C55, size: 0x8, addend: 0x0, symName: __ZNSt3__122__compressed_pair_elemINS_9allocatorINS_11__tree_nodeIcPvEEEELi1ELb1EEC2B8ue170006ENS_16__value_init_tagE, symObjAddr: 0x5788, symBinAddr: 0x100006804, symSize: 0x2C }
  - { offsetInCU: 0x13C88, offset: 0x13C88, size: 0x8, addend: 0x0, symName: __ZNSt3__19allocatorINS_11__tree_nodeIcPvEEEC2B8ue170006Ev, symObjAddr: 0x57B4, symBinAddr: 0x100006830, symSize: 0x2C }
  - { offsetInCU: 0x13CB1, offset: 0x13CB1, size: 0x8, addend: 0x0, symName: __ZNSt3__116__non_trivial_ifILb1ENS_9allocatorINS_11__tree_nodeIcPvEEEEEC2B8ue170006Ev, symObjAddr: 0x57E0, symBinAddr: 0x10000685C, symSize: 0x14 }
  - { offsetInCU: 0x13CDA, offset: 0x13CDA, size: 0x8, addend: 0x0, symName: __ZNSt3__16__treeINS_12__value_typeIcNS_3setIcNS_4lessIcEENS_9allocatorIcEEEEEENS_19__map_value_compareIcS8_S4_Lb1EEENS5_IS8_EEE12__begin_nodeB8ue170006Ev, symObjAddr: 0x57F4, symBinAddr: 0x100006870, symSize: 0x14 }
  - { offsetInCU: 0x13CFF, offset: 0x13CFF, size: 0x8, addend: 0x0, symName: __ZNSt3__16__treeINS_12__value_typeIcNS_3setIcNS_4lessIcEENS_9allocatorIcEEEEEENS_19__map_value_compareIcS8_S4_Lb1EEENS5_IS8_EEE4sizeB8ue170006Ev, symObjAddr: 0x5808, symBinAddr: 0x100006884, symSize: 0x28 }
  - { offsetInCU: 0x13D24, offset: 0x13D24, size: 0x8, addend: 0x0, symName: __ZNSt3__117__compressed_pairImNS_19__map_value_compareIcNS_12__value_typeIcNS_3setIcNS_4lessIcEENS_9allocatorIcEEEEEES5_Lb1EEEE5firstB8ue170006Ev, symObjAddr: 0x5830, symBinAddr: 0x1000068AC, symSize: 0x24 }
  - { offsetInCU: 0x13D49, offset: 0x13D49, size: 0x8, addend: 0x0, symName: __ZNSt3__117__compressed_pairIPNS_11__tree_nodeINS_12__value_typeIcNS_3setIcNS_4lessIcEENS_9allocatorIcEEEEEEPvEENS_21__map_node_destructorINS6_ISB_EEEEE5firstB8ue170006Ev, symObjAddr: 0x5854, symBinAddr: 0x1000068D0, symSize: 0x24 }
  - { offsetInCU: 0x13D6E, offset: 0x13D6E, size: 0x8, addend: 0x0, symName: __ZNSt3__122__compressed_pair_elemIPNS_11__tree_nodeINS_12__value_typeIcNS_3setIcNS_4lessIcEENS_9allocatorIcEEEEEEPvEELi0ELb0EE5__getB8ue170006Ev, symObjAddr: 0x5878, symBinAddr: 0x1000068F4, symSize: 0x14 }
  - { offsetInCU: 0x13D93, offset: 0x13D93, size: 0x8, addend: 0x0, symName: __ZNSt3__110unique_ptrINS_11__tree_nodeINS_12__value_typeIcNS_3setIcNS_4lessIcEENS_9allocatorIcEEEEEEPvEENS_21__map_node_destructorINS6_ISB_EEEEED2B8ue170006Ev, symObjAddr: 0x588C, symBinAddr: 0x100006908, symSize: 0x30 }
  - { offsetInCU: 0x13DBC, offset: 0x13DBC, size: 0x8, addend: 0x0, symName: __ZNSt3__110unique_ptrINS_11__tree_nodeINS_12__value_typeIcNS_3setIcNS_4lessIcEENS_9allocatorIcEEEEEEPvEENS_21__map_node_destructorINS6_ISB_EEEEE5resetB8ue170006EPSB_, symObjAddr: 0x58BC, symBinAddr: 0x100006938, symSize: 0x78 }
  - { offsetInCU: 0x13DFF, offset: 0x13DFF, size: 0x8, addend: 0x0, symName: __ZNSt3__121__map_node_destructorINS_9allocatorINS_11__tree_nodeINS_12__value_typeIcNS_3setIcNS_4lessIcEENS1_IcEEEEEEPvEEEEEclB8ue170006EPSB_, symObjAddr: 0x5934, symBinAddr: 0x1000069B0, symSize: 0xF4 }
  - { offsetInCU: 0x13E33, offset: 0x13E33, size: 0x8, addend: 0x0, symName: __ZNSt3__116allocator_traitsINS_9allocatorINS_11__tree_nodeINS_12__value_typeIcNS_3setIcNS_4lessIcEENS1_IcEEEEEEPvEEEEE7destroyB8ue170006IS8_vvEEvRSC_PT_, symObjAddr: 0x5A28, symBinAddr: 0x100006AA4, symSize: 0x28 }
  - { offsetInCU: 0x13E6E, offset: 0x13E6E, size: 0x8, addend: 0x0, symName: __ZNSt3__116allocator_traitsINS_9allocatorINS_11__tree_nodeINS_12__value_typeIcNS_3setIcNS_4lessIcEENS1_IcEEEEEEPvEEEEE7destroyB8ue170006IKcvvEEvRSC_PT_, symObjAddr: 0x5A50, symBinAddr: 0x100006ACC, symSize: 0x14 }
  - { offsetInCU: 0x13EA9, offset: 0x13EA9, size: 0x8, addend: 0x0, symName: __ZNSt3__116allocator_traitsINS_9allocatorINS_11__tree_nodeINS_12__value_typeIcNS_3setIcNS_4lessIcEENS1_IcEEEEEEPvEEEEE10deallocateB8ue170006ERSC_PSB_m, symObjAddr: 0x5A64, symBinAddr: 0x100006AE0, symSize: 0x34 }
  - { offsetInCU: 0x13EEB, offset: 0x13EEB, size: 0x8, addend: 0x0, symName: __ZNSt3__19allocatorINS_11__tree_nodeINS_12__value_typeIcNS_3setIcNS_4lessIcEENS0_IcEEEEEEPvEEE10deallocateB8ue170006EPSA_m, symObjAddr: 0x5A98, symBinAddr: 0x100006B14, symSize: 0x70 }
  - { offsetInCU: 0x13F2C, offset: 0x13F2C, size: 0x8, addend: 0x0, symName: __ZNSt3__16__treeIcNS_4lessIcEENS_9allocatorIcEEE15__insert_uniqueB8ue170006ERKc, symObjAddr: 0x5B08, symBinAddr: 0x100006B84, symSize: 0x50 }
  - { offsetInCU: 0x13F60, offset: 0x13F60, size: 0x8, addend: 0x0, symName: __ZNSt3__14pairINS_21__tree_const_iteratorIcPNS_11__tree_nodeIcPvEElEEbEC1B8ue170006INS_15__tree_iteratorIcS5_lEEbEERKNS0_IT_T0_EE, symObjAddr: 0x5B58, symBinAddr: 0x100006BD4, symSize: 0x34 }
  - { offsetInCU: 0x13FA9, offset: 0x13FA9, size: 0x8, addend: 0x0, symName: __ZNSt3__16__treeIcNS_4lessIcEENS_9allocatorIcEEE25__emplace_unique_key_argsIcJRKcEEENS_4pairINS_15__tree_iteratorIcPNS_11__tree_nodeIcPvEElEEbEERKT_DpOT0_, symObjAddr: 0x5B8C, symBinAddr: 0x100006C08, symSize: 0xF0 }
  - { offsetInCU: 0x14053, offset: 0x14053, size: 0x8, addend: 0x0, symName: __ZNSt3__14pairINS_21__tree_const_iteratorIcPNS_11__tree_nodeIcPvEElEEbEC2B8ue170006INS_15__tree_iteratorIcS5_lEEbEERKNS0_IT_T0_EE, symObjAddr: 0x5C7C, symBinAddr: 0x100006CF8, symSize: 0x50 }
  - { offsetInCU: 0x1409C, offset: 0x1409C, size: 0x8, addend: 0x0, symName: __ZNKSt3__112basic_stringIcNS_11char_traitsIcEENS_9allocatorIcEEE15__get_long_sizeB8ue170006Ev, symObjAddr: 0x5CCC, symBinAddr: 0x100006D48, symSize: 0x28 }
  - { offsetInCU: 0x140C1, offset: 0x140C1, size: 0x8, addend: 0x0, symName: __ZNKSt3__112basic_stringIcNS_11char_traitsIcEENS_9allocatorIcEEE16__get_short_sizeB8ue170006Ev, symObjAddr: 0x5CF4, symBinAddr: 0x100006D70, symSize: 0x34 }
  - { offsetInCU: 0x140E6, offset: 0x140E6, size: 0x8, addend: 0x0, symName: __ZNSt3__13mapIcNS_3setIcNS_4lessIcEENS_9allocatorIcEEEES3_NS4_INS_4pairIKcS6_EEEEEC2B8ue170006Ev, symObjAddr: 0x5DE8, symBinAddr: 0x100006E64, symSize: 0x40 }
  - { offsetInCU: 0x1410F, offset: 0x1410F, size: 0x8, addend: 0x0, symName: __ZNSt3__119__map_value_compareIcNS_12__value_typeIcNS_3setIcNS_4lessIcEENS_9allocatorIcEEEEEES4_Lb1EEC1B8ue170006ES4_, symObjAddr: 0x5E28, symBinAddr: 0x100006EA4, symSize: 0x2C }
  - { offsetInCU: 0x14147, offset: 0x14147, size: 0x8, addend: 0x0, symName: __ZNSt3__16__treeINS_12__value_typeIcNS_3setIcNS_4lessIcEENS_9allocatorIcEEEEEENS_19__map_value_compareIcS8_S4_Lb1EEENS5_IS8_EEEC1ERKSA_, symObjAddr: 0x5E54, symBinAddr: 0x100006ED0, symSize: 0x34 }
  - { offsetInCU: 0x14181, offset: 0x14181, size: 0x8, addend: 0x0, symName: __ZNSt3__119__map_value_compareIcNS_12__value_typeIcNS_3setIcNS_4lessIcEENS_9allocatorIcEEEEEES4_Lb1EEC2B8ue170006ES4_, symObjAddr: 0x5E88, symBinAddr: 0x100006F04, symSize: 0x14 }
  - { offsetInCU: 0x141B9, offset: 0x141B9, size: 0x8, addend: 0x0, symName: __ZNSt3__16__treeINS_12__value_typeIcNS_3setIcNS_4lessIcEENS_9allocatorIcEEEEEENS_19__map_value_compareIcS8_S4_Lb1EEENS5_IS8_EEEC2ERKSA_, symObjAddr: 0x5E9C, symBinAddr: 0x100006F18, symSize: 0x70 }
  - { offsetInCU: 0x141F3, offset: 0x141F3, size: 0x8, addend: 0x0, symName: __ZNSt3__117__compressed_pairINS_15__tree_end_nodeIPNS_16__tree_node_baseIPvEEEENS_9allocatorINS_11__tree_nodeINS_12__value_typeIcNS_3setIcNS_4lessIcEENS7_IcEEEEEES3_EEEEEC1B8ue170006ILb1EvEEv, symObjAddr: 0x5F0C, symBinAddr: 0x100006F88, symSize: 0x2C }
  - { offsetInCU: 0x14227, offset: 0x14227, size: 0x8, addend: 0x0, symName: __ZNSt3__117__compressed_pairImNS_19__map_value_compareIcNS_12__value_typeIcNS_3setIcNS_4lessIcEENS_9allocatorIcEEEEEES5_Lb1EEEEC1B8ue170006IiRKSA_EEOT_OT0_, symObjAddr: 0x5F38, symBinAddr: 0x100006FB4, symSize: 0x3C }
  - { offsetInCU: 0x1427E, offset: 0x1427E, size: 0x8, addend: 0x0, symName: __ZNSt3__117__compressed_pairINS_15__tree_end_nodeIPNS_16__tree_node_baseIPvEEEENS_9allocatorINS_11__tree_nodeINS_12__value_typeIcNS_3setIcNS_4lessIcEENS7_IcEEEEEES3_EEEEEC2B8ue170006ILb1EvEEv, symObjAddr: 0x5F74, symBinAddr: 0x100006FF0, symSize: 0x34 }
  - { offsetInCU: 0x142B2, offset: 0x142B2, size: 0x8, addend: 0x0, symName: __ZNSt3__122__compressed_pair_elemINS_9allocatorINS_11__tree_nodeINS_12__value_typeIcNS_3setIcNS_4lessIcEENS1_IcEEEEEEPvEEEELi1ELb1EEC2B8ue170006ENS_16__value_init_tagE, symObjAddr: 0x5FA8, symBinAddr: 0x100007024, symSize: 0x2C }
  - { offsetInCU: 0x142E5, offset: 0x142E5, size: 0x8, addend: 0x0, symName: __ZNSt3__19allocatorINS_11__tree_nodeINS_12__value_typeIcNS_3setIcNS_4lessIcEENS0_IcEEEEEEPvEEEC2B8ue170006Ev, symObjAddr: 0x5FD4, symBinAddr: 0x100007050, symSize: 0x2C }
  - { offsetInCU: 0x1430E, offset: 0x1430E, size: 0x8, addend: 0x0, symName: __ZNSt3__116__non_trivial_ifILb1ENS_9allocatorINS_11__tree_nodeINS_12__value_typeIcNS_3setIcNS_4lessIcEENS1_IcEEEEEEPvEEEEEC2B8ue170006Ev, symObjAddr: 0x6000, symBinAddr: 0x10000707C, symSize: 0x14 }
  - { offsetInCU: 0x14337, offset: 0x14337, size: 0x8, addend: 0x0, symName: __ZNSt3__117__compressed_pairImNS_19__map_value_compareIcNS_12__value_typeIcNS_3setIcNS_4lessIcEENS_9allocatorIcEEEEEES5_Lb1EEEEC2B8ue170006IiRKSA_EEOT_OT0_, symObjAddr: 0x6014, symBinAddr: 0x100007090, symSize: 0x44 }
  - { offsetInCU: 0x1438E, offset: 0x1438E, size: 0x8, addend: 0x0, symName: __ZNSt3__122__compressed_pair_elemINS_19__map_value_compareIcNS_12__value_typeIcNS_3setIcNS_4lessIcEENS_9allocatorIcEEEEEES5_Lb1EEELi1ELb1EEC2B8ue170006IRKSA_vEEOT_, symObjAddr: 0x6058, symBinAddr: 0x1000070D4, symSize: 0x18 }
  - { offsetInCU: 0x143CF, offset: 0x143CF, size: 0x8, addend: 0x0, symName: __ZNSt3__13mapIcNS_3setIcNS_4lessIcEENS_9allocatorIcEEEES3_NS4_INS_4pairIKcS6_EEEEED2B8ue170006Ev, symObjAddr: 0x6070, symBinAddr: 0x1000070EC, symSize: 0x2C }
  - { offsetInCU: 0x143F8, offset: 0x143F8, size: 0x8, addend: 0x0, symName: __ZNSt3__16__treeINS_12__value_typeIcNS_3setIcNS_4lessIcEENS_9allocatorIcEEEEEENS_19__map_value_compareIcS8_S4_Lb1EEENS5_IS8_EEED1Ev, symObjAddr: 0x609C, symBinAddr: 0x100007118, symSize: 0x2C }
  - { offsetInCU: 0x14423, offset: 0x14423, size: 0x8, addend: 0x0, symName: __ZNSt3__16__treeINS_12__value_typeIcNS_3setIcNS_4lessIcEENS_9allocatorIcEEEEEENS_19__map_value_compareIcS8_S4_Lb1EEENS5_IS8_EEED2Ev, symObjAddr: 0x60C8, symBinAddr: 0x100007144, symSize: 0x38 }
  - { offsetInCU: 0x1444E, offset: 0x1444E, size: 0x8, addend: 0x0, symName: __ZNSt3__16__treeINS_12__value_typeIcNS_3setIcNS_4lessIcEENS_9allocatorIcEEEEEENS_19__map_value_compareIcS8_S4_Lb1EEENS5_IS8_EEE7destroyEPNS_11__tree_nodeIS8_PvEE, symObjAddr: 0x6100, symBinAddr: 0x10000717C, symSize: 0xC0 }
  - { offsetInCU: 0x144A0, offset: 0x144A0, size: 0x8, addend: 0x0, symName: __ZNSt3__116allocator_traitsINS_9allocatorINS_11__tree_nodeINS_12__value_typeIcNS_3setIcNS_4lessIcEENS1_IcEEEEEEPvEEEEE7destroyB8ue170006INS_4pairIKcS8_EEvvEEvRSC_PT_, symObjAddr: 0x61C0, symBinAddr: 0x10000723C, symSize: 0x28 }
  - { offsetInCU: 0x144DB, offset: 0x144DB, size: 0x8, addend: 0x0, symName: __ZNSt3__122__tree_key_value_typesINS_12__value_typeIcNS_3setIcNS_4lessIcEENS_9allocatorIcEEEEEEE9__get_ptrB8ue170006ERS8_, symObjAddr: 0x61E8, symBinAddr: 0x100007264, symSize: 0x24 }
  - { offsetInCU: 0x144FF, offset: 0x144FF, size: 0x8, addend: 0x0, symName: __ZNSt3__16vectorI4RuleNS_9allocatorIS1_EEEC2ERKS4_, symObjAddr: 0x620C, symBinAddr: 0x100007288, symSize: 0x94 }
  - { offsetInCU: 0x14543, offset: 0x14543, size: 0x8, addend: 0x0, symName: __ZNSt3__116allocator_traitsINS_9allocatorI4RuleEEE37select_on_container_copy_constructionB8ue170006IS3_vvEES3_RKS3_, symObjAddr: 0x62A0, symBinAddr: 0x10000731C, symSize: 0x10 }
  - { offsetInCU: 0x14572, offset: 0x14572, size: 0x8, addend: 0x0, symName: __ZNKSt3__16vectorI4RuleNS_9allocatorIS1_EEE7__allocB8ue170006Ev, symObjAddr: 0x62B0, symBinAddr: 0x10000732C, symSize: 0x28 }
  - { offsetInCU: 0x145A1, offset: 0x145A1, size: 0x8, addend: 0x0, symName: __ZNSt3__117__compressed_pairIP4RuleNS_9allocatorIS1_EEEC1B8ue170006IDnS4_EEOT_OT0_, symObjAddr: 0x62D8, symBinAddr: 0x100007354, symSize: 0x3C }
  - { offsetInCU: 0x145F8, offset: 0x145F8, size: 0x8, addend: 0x0, symName: __ZNSt3__16vectorI4RuleNS_9allocatorIS1_EEE16__init_with_sizeB8ue170006IPS1_S6_EEvT_T0_m, symObjAddr: 0x6314, symBinAddr: 0x100007390, symSize: 0xC0 }
  - { offsetInCU: 0x1466B, offset: 0x1466B, size: 0x8, addend: 0x0, symName: __ZNKSt3__16vectorI4RuleNS_9allocatorIS1_EEE4sizeB8ue170006Ev, symObjAddr: 0x63D4, symBinAddr: 0x100007450, symSize: 0x28 }
  - { offsetInCU: 0x14690, offset: 0x14690, size: 0x8, addend: 0x0, symName: __ZNKSt3__117__compressed_pairIP4RuleNS_9allocatorIS1_EEE6secondB8ue170006Ev, symObjAddr: 0x63FC, symBinAddr: 0x100007478, symSize: 0x24 }
  - { offsetInCU: 0x146B5, offset: 0x146B5, size: 0x8, addend: 0x0, symName: __ZNKSt3__122__compressed_pair_elemINS_9allocatorI4RuleEELi1ELb1EE5__getB8ue170006Ev, symObjAddr: 0x6420, symBinAddr: 0x10000749C, symSize: 0x14 }
  - { offsetInCU: 0x146DA, offset: 0x146DA, size: 0x8, addend: 0x0, symName: __ZNSt3__117__compressed_pairIP4RuleNS_9allocatorIS1_EEEC2B8ue170006IDnS4_EEOT_OT0_, symObjAddr: 0x6434, symBinAddr: 0x1000074B0, symSize: 0x44 }
  - { offsetInCU: 0x14731, offset: 0x14731, size: 0x8, addend: 0x0, symName: __ZNSt3__122__compressed_pair_elemIP4RuleLi0ELb0EEC2B8ue170006IDnvEEOT_, symObjAddr: 0x6478, symBinAddr: 0x1000074F4, symSize: 0x1C }
  - { offsetInCU: 0x14772, offset: 0x14772, size: 0x8, addend: 0x0, symName: __ZNSt3__122__compressed_pair_elemINS_9allocatorI4RuleEELi1ELb1EEC2B8ue170006IS3_vEEOT_, symObjAddr: 0x6494, symBinAddr: 0x100007510, symSize: 0x18 }
  - { offsetInCU: 0x147B3, offset: 0x147B3, size: 0x8, addend: 0x0, symName: __ZNSt3__16vectorI4RuleNS_9allocatorIS1_EEE16__destroy_vectorC1B8ue170006ERS4_, symObjAddr: 0x64EC, symBinAddr: 0x100007568, symSize: 0x34 }
  - { offsetInCU: 0x147EB, offset: 0x147EB, size: 0x8, addend: 0x0, symName: __ZNSt3__16vectorI4RuleNS_9allocatorIS1_EEE11__vallocateB8ue170006Em, symObjAddr: 0x6520, symBinAddr: 0x10000759C, symSize: 0xAC }
  - { offsetInCU: 0x1482E, offset: 0x1482E, size: 0x8, addend: 0x0, symName: __ZNSt3__16vectorI4RuleNS_9allocatorIS1_EEE18__construct_at_endIPS1_S6_EEvT_T0_m, symObjAddr: 0x65CC, symBinAddr: 0x100007648, symSize: 0x94 }
  - { offsetInCU: 0x148A2, offset: 0x148A2, size: 0x8, addend: 0x0, symName: __ZNSt3__128__exception_guard_exceptionsINS_6vectorI4RuleNS_9allocatorIS2_EEE16__destroy_vectorEE10__completeB8ue170006Ev, symObjAddr: 0x6660, symBinAddr: 0x1000076DC, symSize: 0x1C }
  - { offsetInCU: 0x148C7, offset: 0x148C7, size: 0x8, addend: 0x0, symName: __ZNSt3__128__exception_guard_exceptionsINS_6vectorI4RuleNS_9allocatorIS2_EEE16__destroy_vectorEED1B8ue170006Ev, symObjAddr: 0x667C, symBinAddr: 0x1000076F8, symSize: 0x2C }
  - { offsetInCU: 0x148F0, offset: 0x148F0, size: 0x8, addend: 0x0, symName: __ZNSt3__128__exception_guard_exceptionsINS_6vectorI4RuleNS_9allocatorIS2_EEE16__destroy_vectorEEC1B8ue170006ES6_, symObjAddr: 0x66A8, symBinAddr: 0x100007724, symSize: 0x34 }
  - { offsetInCU: 0x14927, offset: 0x14927, size: 0x8, addend: 0x0, symName: __ZNSt3__128__exception_guard_exceptionsINS_6vectorI4RuleNS_9allocatorIS2_EEE16__destroy_vectorEEC2B8ue170006ES6_, symObjAddr: 0x66DC, symBinAddr: 0x100007758, symSize: 0x24 }
  - { offsetInCU: 0x1495E, offset: 0x1495E, size: 0x8, addend: 0x0, symName: __ZNSt3__16vectorI4RuleNS_9allocatorIS1_EEE16__destroy_vectorC2B8ue170006ERS4_, symObjAddr: 0x6700, symBinAddr: 0x10000777C, symSize: 0x20 }
  - { offsetInCU: 0x14996, offset: 0x14996, size: 0x8, addend: 0x0, symName: __ZNKSt3__16vectorI4RuleNS_9allocatorIS1_EEE8max_sizeEv, symObjAddr: 0x6720, symBinAddr: 0x10000779C, symSize: 0x74 }
  - { offsetInCU: 0x149BC, offset: 0x149BC, size: 0x8, addend: 0x0, symName: __ZNKSt3__16vectorI4RuleNS_9allocatorIS1_EEE20__throw_length_errorB8ue170006Ev, symObjAddr: 0x6794, symBinAddr: 0x100007810, symSize: 0x1C }
  - { offsetInCU: 0x149E1, offset: 0x149E1, size: 0x8, addend: 0x0, symName: __ZNSt3__16vectorI4RuleNS_9allocatorIS1_EEE7__allocB8ue170006Ev, symObjAddr: 0x67F0, symBinAddr: 0x10000786C, symSize: 0x28 }
  - { offsetInCU: 0x14A06, offset: 0x14A06, size: 0x8, addend: 0x0, symName: __ZNSt3__16vectorI4RuleNS_9allocatorIS1_EEE9__end_capB8ue170006Ev, symObjAddr: 0x6818, symBinAddr: 0x100007894, symSize: 0x28 }
  - { offsetInCU: 0x14A2B, offset: 0x14A2B, size: 0x8, addend: 0x0, symName: __ZNKSt3__16vectorI4RuleNS_9allocatorIS1_EEE14__annotate_newB8ue170006Em, symObjAddr: 0x6840, symBinAddr: 0x1000078BC, symSize: 0xAC }
  - { offsetInCU: 0x14A5F, offset: 0x14A5F, size: 0x8, addend: 0x0, symName: __ZNSt3__116allocator_traitsINS_9allocatorI4RuleEEE8max_sizeB8ue170006IS3_vEEmRKS3_, symObjAddr: 0x6918, symBinAddr: 0x100007994, symSize: 0x24 }
  - { offsetInCU: 0x14A8D, offset: 0x14A8D, size: 0x8, addend: 0x0, symName: __ZNSt3__114numeric_limitsIlE3maxB8ue170006Ev, symObjAddr: 0x693C, symBinAddr: 0x1000079B8, symSize: 0x14 }
  - { offsetInCU: 0x14AAB, offset: 0x14AAB, size: 0x8, addend: 0x0, symName: __ZNKSt3__16__lessIvvEclB8ue170006ImmEEbRKT_RKT0_, symObjAddr: 0x69A4, symBinAddr: 0x100007A20, symSize: 0x34 }
  - { offsetInCU: 0x14AFE, offset: 0x14AFE, size: 0x8, addend: 0x0, symName: __ZNKSt3__19allocatorI4RuleE8max_sizeB8ue170006Ev, symObjAddr: 0x69D8, symBinAddr: 0x100007A54, symSize: 0x14 }
  - { offsetInCU: 0x14B23, offset: 0x14B23, size: 0x8, addend: 0x0, symName: __ZNSt3__123__libcpp_numeric_limitsIlLb1EE3maxB8ue170006Ev, symObjAddr: 0x69EC, symBinAddr: 0x100007A68, symSize: 0x8 }
  - { offsetInCU: 0x14B37, offset: 0x14B37, size: 0x8, addend: 0x0, symName: __ZNSt12length_errorC1B8ue170006EPKc, symObjAddr: 0x6A58, symBinAddr: 0x100007AD4, symSize: 0x34 }
  - { offsetInCU: 0x14B6E, offset: 0x14B6E, size: 0x8, addend: 0x0, symName: __ZNSt12length_errorC2B8ue170006EPKc, symObjAddr: 0x6A8C, symBinAddr: 0x100007B08, symSize: 0x4C }
  - { offsetInCU: 0x14BA5, offset: 0x14BA5, size: 0x8, addend: 0x0, symName: __ZNSt3__19allocatorI4RuleE8allocateB8ue170006Em, symObjAddr: 0x6AD8, symBinAddr: 0x100007B54, symSize: 0x84 }
  - { offsetInCU: 0x14BD8, offset: 0x14BD8, size: 0x8, addend: 0x0, symName: __ZNSt3__117__compressed_pairIP4RuleNS_9allocatorIS1_EEE6secondB8ue170006Ev, symObjAddr: 0x6B5C, symBinAddr: 0x100007BD8, symSize: 0x24 }
  - { offsetInCU: 0x14BFD, offset: 0x14BFD, size: 0x8, addend: 0x0, symName: __ZNSt3__122__compressed_pair_elemINS_9allocatorI4RuleEELi1ELb1EE5__getB8ue170006Ev, symObjAddr: 0x6B80, symBinAddr: 0x100007BFC, symSize: 0x14 }
  - { offsetInCU: 0x14C22, offset: 0x14C22, size: 0x8, addend: 0x0, symName: __ZNSt3__117__compressed_pairIP4RuleNS_9allocatorIS1_EEE5firstB8ue170006Ev, symObjAddr: 0x6B94, symBinAddr: 0x100007C10, symSize: 0x24 }
  - { offsetInCU: 0x14C47, offset: 0x14C47, size: 0x8, addend: 0x0, symName: __ZNSt3__122__compressed_pair_elemIP4RuleLi0ELb0EE5__getB8ue170006Ev, symObjAddr: 0x6BB8, symBinAddr: 0x100007C34, symSize: 0x14 }
  - { offsetInCU: 0x14C6C, offset: 0x14C6C, size: 0x8, addend: 0x0, symName: __ZNKSt3__16vectorI4RuleNS_9allocatorIS1_EEE31__annotate_contiguous_containerB8ue170006EPKvS6_S6_S6_, symObjAddr: 0x6BCC, symBinAddr: 0x100007C48, symSize: 0x20 }
  - { offsetInCU: 0x14CC1, offset: 0x14CC1, size: 0x8, addend: 0x0, symName: __ZNKSt3__16vectorI4RuleNS_9allocatorIS1_EEE4dataB8ue170006Ev, symObjAddr: 0x6BEC, symBinAddr: 0x100007C68, symSize: 0x28 }
  - { offsetInCU: 0x14CE6, offset: 0x14CE6, size: 0x8, addend: 0x0, symName: __ZNKSt3__16vectorI4RuleNS_9allocatorIS1_EEE8capacityB8ue170006Ev, symObjAddr: 0x6C14, symBinAddr: 0x100007C90, symSize: 0x40 }
  - { offsetInCU: 0x14D0B, offset: 0x14D0B, size: 0x8, addend: 0x0, symName: __ZNKSt3__16vectorI4RuleNS_9allocatorIS1_EEE9__end_capB8ue170006Ev, symObjAddr: 0x6C68, symBinAddr: 0x100007CE4, symSize: 0x28 }
  - { offsetInCU: 0x14D30, offset: 0x14D30, size: 0x8, addend: 0x0, symName: __ZNKSt3__117__compressed_pairIP4RuleNS_9allocatorIS1_EEE5firstB8ue170006Ev, symObjAddr: 0x6C90, symBinAddr: 0x100007D0C, symSize: 0x24 }
  - { offsetInCU: 0x14D55, offset: 0x14D55, size: 0x8, addend: 0x0, symName: __ZNKSt3__122__compressed_pair_elemIP4RuleLi0ELb0EE5__getB8ue170006Ev, symObjAddr: 0x6CB4, symBinAddr: 0x100007D30, symSize: 0x14 }
  - { offsetInCU: 0x14D93, offset: 0x14D93, size: 0x8, addend: 0x0, symName: __ZNSt3__16vectorI4RuleNS_9allocatorIS1_EEE21_ConstructTransactionC1B8ue170006ERS4_m, symObjAddr: 0x6CC8, symBinAddr: 0x100007D44, symSize: 0x3C }
  - { offsetInCU: 0x14DDA, offset: 0x14DDA, size: 0x8, addend: 0x0, symName: __ZNSt3__16vectorI4RuleNS_9allocatorIS1_EEE21_ConstructTransactionD1B8ue170006Ev, symObjAddr: 0x6D84, symBinAddr: 0x100007E00, symSize: 0x2C }
  - { offsetInCU: 0x14E03, offset: 0x14E03, size: 0x8, addend: 0x0, symName: __ZNSt3__16vectorI4RuleNS_9allocatorIS1_EEE21_ConstructTransactionC2B8ue170006ERS4_m, symObjAddr: 0x6DB0, symBinAddr: 0x100007E2C, symSize: 0x44 }
  - { offsetInCU: 0x14E63, offset: 0x14E63, size: 0x8, addend: 0x0, symName: __ZNSt3__14pairIP4RuleS2_EC1B8ue170006ERKS2_S5_, symObjAddr: 0x6FFC, symBinAddr: 0x100008078, symSize: 0x3C }
  - { offsetInCU: 0x14EA8, offset: 0x14EA8, size: 0x8, addend: 0x0, symName: __ZNSt3__14pairIP4RuleS2_EC2B8ue170006ERKS2_S5_, symObjAddr: 0x7038, symBinAddr: 0x1000080B4, symSize: 0x34 }
  - { offsetInCU: 0x14EED, offset: 0x14EED, size: 0x8, addend: 0x0, symName: __ZNSt3__129_AllocatorDestroyRangeReverseINS_9allocatorI4RuleEEPS2_EC1B8ue170006ERS3_RS4_S7_, symObjAddr: 0x70B8, symBinAddr: 0x100008134, symSize: 0x44 }
  - { offsetInCU: 0x14F43, offset: 0x14F43, size: 0x8, addend: 0x0, symName: __ZNSt3__116allocator_traitsINS_9allocatorI4RuleEEE9constructB8ue170006IS2_JRS2_EvEEvRS3_PT_DpOT0_, symObjAddr: 0x70FC, symBinAddr: 0x100008178, symSize: 0x34 }
  - { offsetInCU: 0x14F9A, offset: 0x14F9A, size: 0x8, addend: 0x0, symName: __ZNSt3__128__exception_guard_exceptionsINS_29_AllocatorDestroyRangeReverseINS_9allocatorI4RuleEEPS3_EEE10__completeB8ue170006Ev, symObjAddr: 0x7130, symBinAddr: 0x1000081AC, symSize: 0x1C }
  - { offsetInCU: 0x14FBF, offset: 0x14FBF, size: 0x8, addend: 0x0, symName: __ZNSt3__128__exception_guard_exceptionsINS_29_AllocatorDestroyRangeReverseINS_9allocatorI4RuleEEPS3_EEED1B8ue170006Ev, symObjAddr: 0x714C, symBinAddr: 0x1000081C8, symSize: 0x2C }
  - { offsetInCU: 0x14FE8, offset: 0x14FE8, size: 0x8, addend: 0x0, symName: __ZNSt3__128__exception_guard_exceptionsINS_29_AllocatorDestroyRangeReverseINS_9allocatorI4RuleEEPS3_EEEC1B8ue170006ES6_, symObjAddr: 0x7178, symBinAddr: 0x1000081F4, symSize: 0x34 }
  - { offsetInCU: 0x15020, offset: 0x15020, size: 0x8, addend: 0x0, symName: __ZNSt3__128__exception_guard_exceptionsINS_29_AllocatorDestroyRangeReverseINS_9allocatorI4RuleEEPS3_EEEC2B8ue170006ES6_, symObjAddr: 0x71AC, symBinAddr: 0x100008228, symSize: 0x30 }
  - { offsetInCU: 0x15058, offset: 0x15058, size: 0x8, addend: 0x0, symName: __ZNSt3__129_AllocatorDestroyRangeReverseINS_9allocatorI4RuleEEPS2_EC2B8ue170006ERS3_RS4_S7_, symObjAddr: 0x71DC, symBinAddr: 0x100008258, symSize: 0x38 }
  - { offsetInCU: 0x150AE, offset: 0x150AE, size: 0x8, addend: 0x0, symName: __ZNSt3__19allocatorI4RuleE9constructB8ue170006IS1_JRS1_EEEvPT_DpOT0_, symObjAddr: 0x7214, symBinAddr: 0x100008290, symSize: 0x30 }
  - { offsetInCU: 0x15103, offset: 0x15103, size: 0x8, addend: 0x0, symName: __ZNSt3__128__exception_guard_exceptionsINS_29_AllocatorDestroyRangeReverseINS_9allocatorI4RuleEEPS3_EEED2B8ue170006Ev, symObjAddr: 0x7244, symBinAddr: 0x1000082C0, symSize: 0x48 }
  - { offsetInCU: 0x1512C, offset: 0x1512C, size: 0x8, addend: 0x0, symName: __ZNKSt3__129_AllocatorDestroyRangeReverseINS_9allocatorI4RuleEEPS2_EclB8ue170006Ev, symObjAddr: 0x728C, symBinAddr: 0x100008308, symSize: 0x68 }
  - { offsetInCU: 0x15151, offset: 0x15151, size: 0x8, addend: 0x0, symName: __ZNSt3__116reverse_iteratorIP4RuleEC1B8ue170006ES2_, symObjAddr: 0x7364, symBinAddr: 0x1000083E0, symSize: 0x34 }
  - { offsetInCU: 0x15188, offset: 0x15188, size: 0x8, addend: 0x0, symName: __ZNSt3__116allocator_traitsINS_9allocatorI4RuleEEE7destroyB8ue170006IS2_vEEvRS3_PT_, symObjAddr: 0x73E0, symBinAddr: 0x10000845C, symSize: 0x2C }
  - { offsetInCU: 0x151C5, offset: 0x151C5, size: 0x8, addend: 0x0, symName: __ZNSt3__116reverse_iteratorIP4RuleEppB8ue170006Ev, symObjAddr: 0x7430, symBinAddr: 0x1000084AC, symSize: 0x20 }
  - { offsetInCU: 0x151EA, offset: 0x151EA, size: 0x8, addend: 0x0, symName: __ZNKSt3__116reverse_iteratorIP4RuleE4baseB8ue170006Ev, symObjAddr: 0x7450, symBinAddr: 0x1000084CC, symSize: 0x18 }
  - { offsetInCU: 0x1520F, offset: 0x1520F, size: 0x8, addend: 0x0, symName: __ZNSt3__19allocatorI4RuleE7destroyB8ue170006EPS1_, symObjAddr: 0x7468, symBinAddr: 0x1000084E4, symSize: 0x28 }
  - { offsetInCU: 0x15247, offset: 0x15247, size: 0x8, addend: 0x0, symName: __ZNSt3__119__to_address_helperINS_16reverse_iteratorIP4RuleEEvE6__callB8ue170006ERKS4_, symObjAddr: 0x7490, symBinAddr: 0x10000850C, symSize: 0x4C }
  - { offsetInCU: 0x1526A, offset: 0x1526A, size: 0x8, addend: 0x0, symName: __ZNKSt3__116reverse_iteratorIP4RuleEptB8ue170006Ev, symObjAddr: 0x74DC, symBinAddr: 0x100008558, symSize: 0x24 }
  - { offsetInCU: 0x1528F, offset: 0x1528F, size: 0x8, addend: 0x0, symName: __ZNKSt3__116reverse_iteratorIP4RuleEdeB8ue170006Ev, symObjAddr: 0x7500, symBinAddr: 0x10000857C, symSize: 0x28 }
  - { offsetInCU: 0x152C2, offset: 0x152C2, size: 0x8, addend: 0x0, symName: __ZNSt3__116reverse_iteratorIP4RuleEC2B8ue170006ES2_, symObjAddr: 0x7528, symBinAddr: 0x1000085A4, symSize: 0x28 }
  - { offsetInCU: 0x152F9, offset: 0x152F9, size: 0x8, addend: 0x0, symName: __ZNSt3__118__unwrap_iter_implIP4RuleLb1EE8__unwrapB8ue170006ES2_, symObjAddr: 0x7550, symBinAddr: 0x1000085CC, symSize: 0x24 }
  - { offsetInCU: 0x1531C, offset: 0x1531C, size: 0x8, addend: 0x0, symName: __ZNSt3__118__unwrap_iter_implIP4RuleLb1EE8__rewrapB8ue170006ES2_S2_, symObjAddr: 0x7574, symBinAddr: 0x1000085F0, symSize: 0x50 }
  - { offsetInCU: 0x1534D, offset: 0x1534D, size: 0x8, addend: 0x0, symName: __ZNSt3__16vectorI4RuleNS_9allocatorIS1_EEE21_ConstructTransactionD2B8ue170006Ev, symObjAddr: 0x75C4, symBinAddr: 0x100008640, symSize: 0x20 }
  - { offsetInCU: 0x15376, offset: 0x15376, size: 0x8, addend: 0x0, symName: __ZNSt3__128__exception_guard_exceptionsINS_6vectorI4RuleNS_9allocatorIS2_EEE16__destroy_vectorEED2B8ue170006Ev, symObjAddr: 0x75E4, symBinAddr: 0x100008660, symSize: 0x48 }
  - { offsetInCU: 0x1539F, offset: 0x1539F, size: 0x8, addend: 0x0, symName: __ZNSt3__16vectorI4RuleNS_9allocatorIS1_EEE16__destroy_vectorclB8ue170006Ev, symObjAddr: 0x762C, symBinAddr: 0x1000086A8, symSize: 0x90 }
  - { offsetInCU: 0x153C4, offset: 0x153C4, size: 0x8, addend: 0x0, symName: __ZNSt3__16vectorI4RuleNS_9allocatorIS1_EEE7__clearB8ue170006Ev, symObjAddr: 0x76BC, symBinAddr: 0x100008738, symSize: 0x28 }
  - { offsetInCU: 0x153E9, offset: 0x153E9, size: 0x8, addend: 0x0, symName: __ZNKSt3__16vectorI4RuleNS_9allocatorIS1_EEE17__annotate_deleteB8ue170006Ev, symObjAddr: 0x76E4, symBinAddr: 0x100008760, symSize: 0xB8 }
  - { offsetInCU: 0x1540E, offset: 0x1540E, size: 0x8, addend: 0x0, symName: __ZNSt3__116allocator_traitsINS_9allocatorI4RuleEEE10deallocateB8ue170006ERS3_PS2_m, symObjAddr: 0x779C, symBinAddr: 0x100008818, symSize: 0x34 }
  - { offsetInCU: 0x15450, offset: 0x15450, size: 0x8, addend: 0x0, symName: __ZNSt3__16vectorI4RuleNS_9allocatorIS1_EEE22__base_destruct_at_endB8ue170006EPS1_, symObjAddr: 0x77D0, symBinAddr: 0x10000884C, symSize: 0xA0 }
  - { offsetInCU: 0x15493, offset: 0x15493, size: 0x8, addend: 0x0, symName: __ZNSt3__19allocatorI4RuleE10deallocateB8ue170006EPS1_m, symObjAddr: 0x7870, symBinAddr: 0x1000088EC, symSize: 0x70 }
  - { offsetInCU: 0x154D4, offset: 0x154D4, size: 0x8, addend: 0x0, symName: __ZNSt3__16vectorI4RuleNS_9allocatorIS1_EEED2B8ue170006Ev, symObjAddr: 0x78E0, symBinAddr: 0x10000895C, symSize: 0x3C }
  - { offsetInCU: 0x154FD, offset: 0x154FD, size: 0x8, addend: 0x0, symName: __ZNSt3__13mapIcNS_3setIcNS_4lessIcEENS_9allocatorIcEEEES3_NS4_INS_4pairIKcS6_EEEEEC2B8ue170006ERKSB_, symObjAddr: 0x791C, symBinAddr: 0x100008998, symSize: 0x90 }
  - { offsetInCU: 0x15535, offset: 0x15535, size: 0x8, addend: 0x0, symName: __ZNSt3__16__treeINS_12__value_typeIcNS_3setIcNS_4lessIcEENS_9allocatorIcEEEEEENS_19__map_value_compareIcS8_S4_Lb1EEENS5_IS8_EEEC1ERKSC_, symObjAddr: 0x79AC, symBinAddr: 0x100008A28, symSize: 0x34 }
  - { offsetInCU: 0x1556F, offset: 0x1556F, size: 0x8, addend: 0x0, symName: __ZNSt3__13mapIcNS_3setIcNS_4lessIcEENS_9allocatorIcEEEES3_NS4_INS_4pairIKcS6_EEEEE6insertB8ue170006INS_20__map_const_iteratorINS_21__tree_const_iteratorINS_12__value_typeIcS6_EEPNS_11__tree_nodeISG_PvEElEEEEEEvT_SN_, symObjAddr: 0x79E0, symBinAddr: 0x100008A5C, symSize: 0x8C }
  - { offsetInCU: 0x155D8, offset: 0x155D8, size: 0x8, addend: 0x0, symName: __ZNKSt3__13mapIcNS_3setIcNS_4lessIcEENS_9allocatorIcEEEES3_NS4_INS_4pairIKcS6_EEEEE5beginB8ue170006Ev, symObjAddr: 0x7A6C, symBinAddr: 0x100008AE8, symSize: 0x38 }
  - { offsetInCU: 0x155FD, offset: 0x155FD, size: 0x8, addend: 0x0, symName: __ZNKSt3__13mapIcNS_3setIcNS_4lessIcEENS_9allocatorIcEEEES3_NS4_INS_4pairIKcS6_EEEEE3endB8ue170006Ev, symObjAddr: 0x7AA4, symBinAddr: 0x100008B20, symSize: 0x38 }
  - { offsetInCU: 0x15622, offset: 0x15622, size: 0x8, addend: 0x0, symName: __ZNSt3__16__treeINS_12__value_typeIcNS_3setIcNS_4lessIcEENS_9allocatorIcEEEEEENS_19__map_value_compareIcS8_S4_Lb1EEENS5_IS8_EEEC2ERKSC_, symObjAddr: 0x7ADC, symBinAddr: 0x100008B58, symSize: 0x9C }
  - { offsetInCU: 0x1565C, offset: 0x1565C, size: 0x8, addend: 0x0, symName: __ZNSt3__116allocator_traitsINS_9allocatorINS_11__tree_nodeINS_12__value_typeIcNS_3setIcNS_4lessIcEENS1_IcEEEEEEPvEEEEE37select_on_container_copy_constructionB8ue170006ISC_vvEESC_RKSC_, symObjAddr: 0x7B78, symBinAddr: 0x100008BF4, symSize: 0x10 }
  - { offsetInCU: 0x1568B, offset: 0x1568B, size: 0x8, addend: 0x0, symName: __ZNKSt3__16__treeINS_12__value_typeIcNS_3setIcNS_4lessIcEENS_9allocatorIcEEEEEENS_19__map_value_compareIcS8_S4_Lb1EEENS5_IS8_EEE12__node_allocB8ue170006Ev, symObjAddr: 0x7B88, symBinAddr: 0x100008C04, symSize: 0x28 }
  - { offsetInCU: 0x156B5, offset: 0x156B5, size: 0x8, addend: 0x0, symName: __ZNSt3__117__compressed_pairINS_15__tree_end_nodeIPNS_16__tree_node_baseIPvEEEENS_9allocatorINS_11__tree_nodeINS_12__value_typeIcNS_3setIcNS_4lessIcEENS7_IcEEEEEES3_EEEEEC1B8ue170006INS_18__default_init_tagESH_EEOT_OT0_, symObjAddr: 0x7BB0, symBinAddr: 0x100008C2C, symSize: 0x3C }
  - { offsetInCU: 0x1570C, offset: 0x1570C, size: 0x8, addend: 0x0, symName: __ZNKSt3__16__treeINS_12__value_typeIcNS_3setIcNS_4lessIcEENS_9allocatorIcEEEEEENS_19__map_value_compareIcS8_S4_Lb1EEENS5_IS8_EEE10value_compB8ue170006Ev, symObjAddr: 0x7BEC, symBinAddr: 0x100008C68, symSize: 0x28 }
  - { offsetInCU: 0x15731, offset: 0x15731, size: 0x8, addend: 0x0, symName: __ZNKSt3__117__compressed_pairINS_15__tree_end_nodeIPNS_16__tree_node_baseIPvEEEENS_9allocatorINS_11__tree_nodeINS_12__value_typeIcNS_3setIcNS_4lessIcEENS7_IcEEEEEES3_EEEEE6secondB8ue170006Ev, symObjAddr: 0x7C14, symBinAddr: 0x100008C90, symSize: 0x24 }
  - { offsetInCU: 0x15756, offset: 0x15756, size: 0x8, addend: 0x0, symName: __ZNKSt3__122__compressed_pair_elemINS_9allocatorINS_11__tree_nodeINS_12__value_typeIcNS_3setIcNS_4lessIcEENS1_IcEEEEEEPvEEEELi1ELb1EE5__getB8ue170006Ev, symObjAddr: 0x7C38, symBinAddr: 0x100008CB4, symSize: 0x14 }
  - { offsetInCU: 0x1577B, offset: 0x1577B, size: 0x8, addend: 0x0, symName: __ZNSt3__117__compressed_pairINS_15__tree_end_nodeIPNS_16__tree_node_baseIPvEEEENS_9allocatorINS_11__tree_nodeINS_12__value_typeIcNS_3setIcNS_4lessIcEENS7_IcEEEEEES3_EEEEEC2B8ue170006INS_18__default_init_tagESH_EEOT_OT0_, symObjAddr: 0x7C4C, symBinAddr: 0x100008CC8, symSize: 0x40 }
  - { offsetInCU: 0x157D2, offset: 0x157D2, size: 0x8, addend: 0x0, symName: __ZNSt3__122__compressed_pair_elemINS_9allocatorINS_11__tree_nodeINS_12__value_typeIcNS_3setIcNS_4lessIcEENS1_IcEEEEEEPvEEEELi1ELb1EEC2B8ue170006ISC_vEEOT_, symObjAddr: 0x7C8C, symBinAddr: 0x100008D08, symSize: 0x18 }
  - { offsetInCU: 0x15813, offset: 0x15813, size: 0x8, addend: 0x0, symName: __ZNKSt3__117__compressed_pairImNS_19__map_value_compareIcNS_12__value_typeIcNS_3setIcNS_4lessIcEENS_9allocatorIcEEEEEES5_Lb1EEEE6secondB8ue170006Ev, symObjAddr: 0x7CA4, symBinAddr: 0x100008D20, symSize: 0x24 }
  - { offsetInCU: 0x15838, offset: 0x15838, size: 0x8, addend: 0x0, symName: __ZNKSt3__122__compressed_pair_elemINS_19__map_value_compareIcNS_12__value_typeIcNS_3setIcNS_4lessIcEENS_9allocatorIcEEEEEES5_Lb1EEELi1ELb1EE5__getB8ue170006Ev, symObjAddr: 0x7CC8, symBinAddr: 0x100008D44, symSize: 0x14 }
  - { offsetInCU: 0x1585D, offset: 0x1585D, size: 0x8, addend: 0x0, symName: __ZNKSt3__13mapIcNS_3setIcNS_4lessIcEENS_9allocatorIcEEEES3_NS4_INS_4pairIKcS6_EEEEE4cendB8ue170006Ev, symObjAddr: 0x7CDC, symBinAddr: 0x100008D58, symSize: 0x2C }
  - { offsetInCU: 0x15882, offset: 0x15882, size: 0x8, addend: 0x0, symName: __ZNSt3__13mapIcNS_3setIcNS_4lessIcEENS_9allocatorIcEEEES3_NS4_INS_4pairIKcS6_EEEEE6insertB8ue170006ENS_20__map_const_iteratorINS_21__tree_const_iteratorINS_12__value_typeIcS6_EEPNS_11__tree_nodeISF_PvEElEEEERKS9_, symObjAddr: 0x7D38, symBinAddr: 0x100008DB4, symSize: 0x50 }
  - { offsetInCU: 0x158C5, offset: 0x158C5, size: 0x8, addend: 0x0, symName: __ZNSt3__120__map_const_iteratorINS_21__tree_const_iteratorINS_12__value_typeIcNS_3setIcNS_4lessIcEENS_9allocatorIcEEEEEEPNS_11__tree_nodeIS9_PvEElEEEC1B8ue170006ESE_, symObjAddr: 0x7D88, symBinAddr: 0x100008E04, symSize: 0x34 }
  - { offsetInCU: 0x158FD, offset: 0x158FD, size: 0x8, addend: 0x0, symName: __ZNKSt3__120__map_const_iteratorINS_21__tree_const_iteratorINS_12__value_typeIcNS_3setIcNS_4lessIcEENS_9allocatorIcEEEEEEPNS_11__tree_nodeIS9_PvEElEEEdeB8ue170006Ev, symObjAddr: 0x7DBC, symBinAddr: 0x100008E38, symSize: 0x28 }
  - { offsetInCU: 0x15922, offset: 0x15922, size: 0x8, addend: 0x0, symName: __ZNSt3__120__map_const_iteratorINS_21__tree_const_iteratorINS_12__value_typeIcNS_3setIcNS_4lessIcEENS_9allocatorIcEEEEEEPNS_11__tree_nodeIS9_PvEElEEEppB8ue170006Ev, symObjAddr: 0x7DE4, symBinAddr: 0x100008E60, symSize: 0x2C }
  - { offsetInCU: 0x15947, offset: 0x15947, size: 0x8, addend: 0x0, symName: __ZNSt3__16__treeINS_12__value_typeIcNS_3setIcNS_4lessIcEENS_9allocatorIcEEEEEENS_19__map_value_compareIcS8_S4_Lb1EEENS5_IS8_EEE15__insert_uniqueB8ue170006ENS_21__tree_const_iteratorIS8_PNS_11__tree_nodeIS8_PvEElEERKNS_4pairIKcS7_EE, symObjAddr: 0x7E74, symBinAddr: 0x100008EF0, symSize: 0x64 }
  - { offsetInCU: 0x1598A, offset: 0x1598A, size: 0x8, addend: 0x0, symName: __ZNSt3__114__map_iteratorINS_15__tree_iteratorINS_12__value_typeIcNS_3setIcNS_4lessIcEENS_9allocatorIcEEEEEEPNS_11__tree_nodeIS9_PvEElEEEC1B8ue170006ESE_, symObjAddr: 0x7ED8, symBinAddr: 0x100008F54, symSize: 0x34 }
  - { offsetInCU: 0x159C2, offset: 0x159C2, size: 0x8, addend: 0x0, symName: __ZNSt3__16__treeINS_12__value_typeIcNS_3setIcNS_4lessIcEENS_9allocatorIcEEEEEENS_19__map_value_compareIcS8_S4_Lb1EEENS5_IS8_EEE30__emplace_hint_unique_key_argsIcJRKNS_4pairIKcS7_EEEEENSE_INS_15__tree_iteratorIS8_PNS_11__tree_nodeIS8_PvEElEEbEENS_21__tree_const_iteratorIS8_SN_lEERKT_DpOT0_, symObjAddr: 0x7F0C, symBinAddr: 0x100008F88, symSize: 0x104 }
  - { offsetInCU: 0x15A8C, offset: 0x15A8C, size: 0x8, addend: 0x0, symName: __ZNSt3__122__tree_key_value_typesINS_12__value_typeIcNS_3setIcNS_4lessIcEENS_9allocatorIcEEEEEEE9__get_keyB8ue170006IKNS_4pairIKcS7_EEEENS_9enable_ifIXsr17__is_same_uncvrefIT_SD_EE5valueERSC_E4typeERSG_, symObjAddr: 0x8010, symBinAddr: 0x10000908C, symSize: 0x14 }
  - { offsetInCU: 0x15AB9, offset: 0x15AB9, size: 0x8, addend: 0x0, symName: __ZNSt3__16__treeINS_12__value_typeIcNS_3setIcNS_4lessIcEENS_9allocatorIcEEEEEENS_19__map_value_compareIcS8_S4_Lb1EEENS5_IS8_EEE12__find_equalIcEERPNS_16__tree_node_baseIPvEENS_21__tree_const_iteratorIS8_PNS_11__tree_nodeIS8_SF_EElEERPNS_15__tree_end_nodeISH_EESI_RKT_, symObjAddr: 0x8024, symBinAddr: 0x1000090A0, symSize: 0x304 }
  - { offsetInCU: 0x15B60, offset: 0x15B60, size: 0x8, addend: 0x0, symName: __ZNSt3__16__treeINS_12__value_typeIcNS_3setIcNS_4lessIcEENS_9allocatorIcEEEEEENS_19__map_value_compareIcS8_S4_Lb1EEENS5_IS8_EEE16__construct_nodeIJRKNS_4pairIKcS7_EEEEENS_10unique_ptrINS_11__tree_nodeIS8_PvEENS_22__tree_node_destructorINS5_ISM_EEEEEEDpOT_, symObjAddr: 0x8328, symBinAddr: 0x1000093A4, symSize: 0x110 }
  - { offsetInCU: 0x15BBF, offset: 0x15BBF, size: 0x8, addend: 0x0, symName: __ZNKSt3__110unique_ptrINS_11__tree_nodeINS_12__value_typeIcNS_3setIcNS_4lessIcEENS_9allocatorIcEEEEEEPvEENS_22__tree_node_destructorINS6_ISB_EEEEE3getB8ue170006Ev, symObjAddr: 0x8438, symBinAddr: 0x1000094B4, symSize: 0x28 }
  - { offsetInCU: 0x15BE4, offset: 0x15BE4, size: 0x8, addend: 0x0, symName: __ZNSt3__110unique_ptrINS_11__tree_nodeINS_12__value_typeIcNS_3setIcNS_4lessIcEENS_9allocatorIcEEEEEEPvEENS_22__tree_node_destructorINS6_ISB_EEEEE7releaseB8ue170006Ev, symObjAddr: 0x8460, symBinAddr: 0x1000094DC, symSize: 0x44 }
  - { offsetInCU: 0x15C18, offset: 0x15C18, size: 0x8, addend: 0x0, symName: __ZNSt3__110unique_ptrINS_11__tree_nodeINS_12__value_typeIcNS_3setIcNS_4lessIcEENS_9allocatorIcEEEEEEPvEENS_22__tree_node_destructorINS6_ISB_EEEEED1B8ue170006Ev, symObjAddr: 0x84A4, symBinAddr: 0x100009520, symSize: 0x2C }
  - { offsetInCU: 0x15C41, offset: 0x15C41, size: 0x8, addend: 0x0, symName: __ZNSt3__115__tree_iteratorINS_12__value_typeIcNS_3setIcNS_4lessIcEENS_9allocatorIcEEEEEEPNS_11__tree_nodeIS8_PvEElEC1B8ue170006ESC_, symObjAddr: 0x84D0, symBinAddr: 0x10000954C, symSize: 0x34 }
  - { offsetInCU: 0x15C79, offset: 0x15C79, size: 0x8, addend: 0x0, symName: __ZNSt3__14pairINS_15__tree_iteratorINS_12__value_typeIcNS_3setIcNS_4lessIcEENS_9allocatorIcEEEEEEPNS_11__tree_nodeIS9_PvEElEEbEC1B8ue170006ERKSE_RKb, symObjAddr: 0x8504, symBinAddr: 0x100009580, symSize: 0x3C }
  - { offsetInCU: 0x15CBE, offset: 0x15CBE, size: 0x8, addend: 0x0, symName: __ZNSt3__16__treeINS_12__value_typeIcNS_3setIcNS_4lessIcEENS_9allocatorIcEEEEEENS_19__map_value_compareIcS8_S4_Lb1EEENS5_IS8_EEE3endB8ue170006Ev, symObjAddr: 0x8540, symBinAddr: 0x1000095BC, symSize: 0x34 }
  - { offsetInCU: 0x15CE3, offset: 0x15CE3, size: 0x8, addend: 0x0, symName: __ZNSt3__121__tree_const_iteratorINS_12__value_typeIcNS_3setIcNS_4lessIcEENS_9allocatorIcEEEEEEPNS_11__tree_nodeIS8_PvEElEC1B8ue170006ENS_15__tree_iteratorIS8_SC_lEE, symObjAddr: 0x8574, symBinAddr: 0x1000095F0, symSize: 0x34 }
  - { offsetInCU: 0x15D1B, offset: 0x15D1B, size: 0x8, addend: 0x0, symName: __ZNKSt3__121__tree_const_iteratorINS_12__value_typeIcNS_3setIcNS_4lessIcEENS_9allocatorIcEEEEEEPNS_11__tree_nodeIS8_PvEElEdeB8ue170006Ev, symObjAddr: 0x85A8, symBinAddr: 0x100009624, symSize: 0x28 }
  - { offsetInCU: 0x15D40, offset: 0x15D40, size: 0x8, addend: 0x0, symName: __ZNSt3__16__treeINS_12__value_typeIcNS_3setIcNS_4lessIcEENS_9allocatorIcEEEEEENS_19__map_value_compareIcS8_S4_Lb1EEENS5_IS8_EEE5beginB8ue170006Ev, symObjAddr: 0x85D0, symBinAddr: 0x10000964C, symSize: 0x34 }
  - { offsetInCU: 0x15D65, offset: 0x15D65, size: 0x8, addend: 0x0, symName: __ZNSt3__121__tree_const_iteratorINS_12__value_typeIcNS_3setIcNS_4lessIcEENS_9allocatorIcEEEEEEPNS_11__tree_nodeIS8_PvEElEmmB8ue170006Ev, symObjAddr: 0x8604, symBinAddr: 0x100009680, symSize: 0x38 }
  - { offsetInCU: 0x15D8A, offset: 0x15D8A, size: 0x8, addend: 0x0, symName: __ZNKSt3__121__tree_const_iteratorINS_12__value_typeIcNS_3setIcNS_4lessIcEENS_9allocatorIcEEEEEEPNS_11__tree_nodeIS8_PvEElE8__get_npB8ue170006Ev, symObjAddr: 0x8678, symBinAddr: 0x1000096F4, symSize: 0x18 }
  - { offsetInCU: 0x15DAF, offset: 0x15DAF, size: 0x8, addend: 0x0, symName: __ZNSt3__115__tree_iteratorINS_12__value_typeIcNS_3setIcNS_4lessIcEENS_9allocatorIcEEEEEEPNS_11__tree_nodeIS8_PvEElEC1B8ue170006EPNS_15__tree_end_nodeIPNS_16__tree_node_baseISA_EEEE, symObjAddr: 0x8690, symBinAddr: 0x10000970C, symSize: 0x34 }
  - { offsetInCU: 0x15DE7, offset: 0x15DE7, size: 0x8, addend: 0x0, symName: __ZNSt3__115__tree_iteratorINS_12__value_typeIcNS_3setIcNS_4lessIcEENS_9allocatorIcEEEEEEPNS_11__tree_nodeIS8_PvEElEC2B8ue170006EPNS_15__tree_end_nodeIPNS_16__tree_node_baseISA_EEEE, symObjAddr: 0x86C4, symBinAddr: 0x100009740, symSize: 0x20 }
  - { offsetInCU: 0x15E1F, offset: 0x15E1F, size: 0x8, addend: 0x0, symName: __ZNSt3__121__tree_const_iteratorINS_12__value_typeIcNS_3setIcNS_4lessIcEENS_9allocatorIcEEEEEEPNS_11__tree_nodeIS8_PvEElEC2B8ue170006ENS_15__tree_iteratorIS8_SC_lEE, symObjAddr: 0x86E4, symBinAddr: 0x100009760, symSize: 0x20 }
  - { offsetInCU: 0x15E57, offset: 0x15E57, size: 0x8, addend: 0x0, symName: __ZNSt3__121__tree_const_iteratorINS_12__value_typeIcNS_3setIcNS_4lessIcEENS_9allocatorIcEEEEEEPNS_11__tree_nodeIS8_PvEElEppB8ue170006Ev, symObjAddr: 0x87E0, symBinAddr: 0x10000985C, symSize: 0x38 }
  - { offsetInCU: 0x15E7C, offset: 0x15E7C, size: 0x8, addend: 0x0, symName: __ZNSt3__122__tree_node_destructorINS_9allocatorINS_11__tree_nodeINS_12__value_typeIcNS_3setIcNS_4lessIcEENS1_IcEEEEEEPvEEEEEC1B8ue170006ERSC_b, symObjAddr: 0x8818, symBinAddr: 0x100009894, symSize: 0x48 }
  - { offsetInCU: 0x15EC8, offset: 0x15EC8, size: 0x8, addend: 0x0, symName: __ZNSt3__110unique_ptrINS_11__tree_nodeINS_12__value_typeIcNS_3setIcNS_4lessIcEENS_9allocatorIcEEEEEEPvEENS_22__tree_node_destructorINS6_ISB_EEEEEC1B8ue170006ILb1EvEEPSB_NS_16__dependent_typeINS_27__unique_ptr_deleter_sfinaeISE_EEXT_EE20__good_rval_ref_typeE, symObjAddr: 0x8860, symBinAddr: 0x1000098DC, symSize: 0x3C }
  - { offsetInCU: 0x15F18, offset: 0x15F18, size: 0x8, addend: 0x0, symName: __ZNSt3__116allocator_traitsINS_9allocatorINS_11__tree_nodeINS_12__value_typeIcNS_3setIcNS_4lessIcEENS1_IcEEEEEEPvEEEEE9constructB8ue170006INS_4pairIKcS8_EEJRKSH_EvEEvRSC_PT_DpOT0_, symObjAddr: 0x889C, symBinAddr: 0x100009918, symSize: 0x34 }
  - { offsetInCU: 0x15F6F, offset: 0x15F6F, size: 0x8, addend: 0x0, symName: __ZNKSt3__110unique_ptrINS_11__tree_nodeINS_12__value_typeIcNS_3setIcNS_4lessIcEENS_9allocatorIcEEEEEEPvEENS_22__tree_node_destructorINS6_ISB_EEEEEptB8ue170006Ev, symObjAddr: 0x88D0, symBinAddr: 0x10000994C, symSize: 0x28 }
  - { offsetInCU: 0x15F94, offset: 0x15F94, size: 0x8, addend: 0x0, symName: __ZNSt3__110unique_ptrINS_11__tree_nodeINS_12__value_typeIcNS_3setIcNS_4lessIcEENS_9allocatorIcEEEEEEPvEENS_22__tree_node_destructorINS6_ISB_EEEEE11get_deleterB8ue170006Ev, symObjAddr: 0x88F8, symBinAddr: 0x100009974, symSize: 0x24 }
  - { offsetInCU: 0x15FB9, offset: 0x15FB9, size: 0x8, addend: 0x0, symName: __ZNSt3__122__tree_node_destructorINS_9allocatorINS_11__tree_nodeINS_12__value_typeIcNS_3setIcNS_4lessIcEENS1_IcEEEEEEPvEEEEEC2B8ue170006ERSC_b, symObjAddr: 0x891C, symBinAddr: 0x100009998, symSize: 0x38 }
  - { offsetInCU: 0x16000, offset: 0x16000, size: 0x8, addend: 0x0, symName: __ZNSt3__110unique_ptrINS_11__tree_nodeINS_12__value_typeIcNS_3setIcNS_4lessIcEENS_9allocatorIcEEEEEEPvEENS_22__tree_node_destructorINS6_ISB_EEEEEC2B8ue170006ILb1EvEEPSB_NS_16__dependent_typeINS_27__unique_ptr_deleter_sfinaeISE_EEXT_EE20__good_rval_ref_typeE, symObjAddr: 0x8954, symBinAddr: 0x1000099D0, symSize: 0x5C }
  - { offsetInCU: 0x16050, offset: 0x16050, size: 0x8, addend: 0x0, symName: __ZNSt3__117__compressed_pairIPNS_11__tree_nodeINS_12__value_typeIcNS_3setIcNS_4lessIcEENS_9allocatorIcEEEEEEPvEENS_22__tree_node_destructorINS6_ISB_EEEEEC1B8ue170006IRSC_SF_EEOT_OT0_, symObjAddr: 0x89B0, symBinAddr: 0x100009A2C, symSize: 0x3C }
  - { offsetInCU: 0x160A7, offset: 0x160A7, size: 0x8, addend: 0x0, symName: __ZNSt3__117__compressed_pairIPNS_11__tree_nodeINS_12__value_typeIcNS_3setIcNS_4lessIcEENS_9allocatorIcEEEEEEPvEENS_22__tree_node_destructorINS6_ISB_EEEEEC2B8ue170006IRSC_SF_EEOT_OT0_, symObjAddr: 0x89EC, symBinAddr: 0x100009A68, symSize: 0x48 }
  - { offsetInCU: 0x160FE, offset: 0x160FE, size: 0x8, addend: 0x0, symName: __ZNSt3__122__compressed_pair_elemINS_22__tree_node_destructorINS_9allocatorINS_11__tree_nodeINS_12__value_typeIcNS_3setIcNS_4lessIcEENS2_IcEEEEEEPvEEEEEELi1ELb0EEC2B8ue170006ISE_vEEOT_, symObjAddr: 0x8A34, symBinAddr: 0x100009AB0, symSize: 0x24 }
  - { offsetInCU: 0x1613F, offset: 0x1613F, size: 0x8, addend: 0x0, symName: __ZNSt3__19allocatorINS_11__tree_nodeINS_12__value_typeIcNS_3setIcNS_4lessIcEENS0_IcEEEEEEPvEEE9constructB8ue170006INS_4pairIKcS7_EEJRKSF_EEEvPT_DpOT0_, symObjAddr: 0x8A58, symBinAddr: 0x100009AD4, symSize: 0x30 }
  - { offsetInCU: 0x16194, offset: 0x16194, size: 0x8, addend: 0x0, symName: __ZNKSt3__117__compressed_pairIPNS_11__tree_nodeINS_12__value_typeIcNS_3setIcNS_4lessIcEENS_9allocatorIcEEEEEEPvEENS_22__tree_node_destructorINS6_ISB_EEEEE5firstB8ue170006Ev, symObjAddr: 0x8A88, symBinAddr: 0x100009B04, symSize: 0x24 }
  - { offsetInCU: 0x161B9, offset: 0x161B9, size: 0x8, addend: 0x0, symName: __ZNSt3__117__compressed_pairIPNS_11__tree_nodeINS_12__value_typeIcNS_3setIcNS_4lessIcEENS_9allocatorIcEEEEEEPvEENS_22__tree_node_destructorINS6_ISB_EEEEE6secondB8ue170006Ev, symObjAddr: 0x8AAC, symBinAddr: 0x100009B28, symSize: 0x28 }
  - { offsetInCU: 0x161DE, offset: 0x161DE, size: 0x8, addend: 0x0, symName: __ZNSt3__122__compressed_pair_elemINS_22__tree_node_destructorINS_9allocatorINS_11__tree_nodeINS_12__value_typeIcNS_3setIcNS_4lessIcEENS2_IcEEEEEEPvEEEEEELi1ELb0EE5__getB8ue170006Ev, symObjAddr: 0x8AD4, symBinAddr: 0x100009B50, symSize: 0x14 }
  - { offsetInCU: 0x16203, offset: 0x16203, size: 0x8, addend: 0x0, symName: __ZNSt3__117__compressed_pairIPNS_11__tree_nodeINS_12__value_typeIcNS_3setIcNS_4lessIcEENS_9allocatorIcEEEEEEPvEENS_22__tree_node_destructorINS6_ISB_EEEEE5firstB8ue170006Ev, symObjAddr: 0x8AE8, symBinAddr: 0x100009B64, symSize: 0x24 }
  - { offsetInCU: 0x16228, offset: 0x16228, size: 0x8, addend: 0x0, symName: __ZNSt3__110unique_ptrINS_11__tree_nodeINS_12__value_typeIcNS_3setIcNS_4lessIcEENS_9allocatorIcEEEEEEPvEENS_22__tree_node_destructorINS6_ISB_EEEEED2B8ue170006Ev, symObjAddr: 0x8B0C, symBinAddr: 0x100009B88, symSize: 0x30 }
  - { offsetInCU: 0x16251, offset: 0x16251, size: 0x8, addend: 0x0, symName: __ZNSt3__110unique_ptrINS_11__tree_nodeINS_12__value_typeIcNS_3setIcNS_4lessIcEENS_9allocatorIcEEEEEEPvEENS_22__tree_node_destructorINS6_ISB_EEEEE5resetB8ue170006EPSB_, symObjAddr: 0x8B3C, symBinAddr: 0x100009BB8, symSize: 0x78 }
  - { offsetInCU: 0x16294, offset: 0x16294, size: 0x8, addend: 0x0, symName: __ZNSt3__122__tree_node_destructorINS_9allocatorINS_11__tree_nodeINS_12__value_typeIcNS_3setIcNS_4lessIcEENS1_IcEEEEEEPvEEEEEclB8ue170006EPSB_, symObjAddr: 0x8BB4, symBinAddr: 0x100009C30, symSize: 0xA4 }
  - { offsetInCU: 0x162C8, offset: 0x162C8, size: 0x8, addend: 0x0, symName: __ZNSt3__115__tree_iteratorINS_12__value_typeIcNS_3setIcNS_4lessIcEENS_9allocatorIcEEEEEEPNS_11__tree_nodeIS8_PvEElEC2B8ue170006ESC_, symObjAddr: 0x8C58, symBinAddr: 0x100009CD4, symSize: 0x20 }
  - { offsetInCU: 0x16300, offset: 0x16300, size: 0x8, addend: 0x0, symName: __ZNSt3__14pairINS_15__tree_iteratorINS_12__value_typeIcNS_3setIcNS_4lessIcEENS_9allocatorIcEEEEEEPNS_11__tree_nodeIS9_PvEElEEbEC2B8ue170006ERKSE_RKb, symObjAddr: 0x8C78, symBinAddr: 0x100009CF4, symSize: 0x38 }
  - { offsetInCU: 0x16345, offset: 0x16345, size: 0x8, addend: 0x0, symName: __ZNSt3__114__map_iteratorINS_15__tree_iteratorINS_12__value_typeIcNS_3setIcNS_4lessIcEENS_9allocatorIcEEEEEEPNS_11__tree_nodeIS9_PvEElEEEC2B8ue170006ESE_, symObjAddr: 0x8CB0, symBinAddr: 0x100009D2C, symSize: 0x20 }
  - { offsetInCU: 0x1637D, offset: 0x1637D, size: 0x8, addend: 0x0, symName: __ZNSt3__120__map_const_iteratorINS_21__tree_const_iteratorINS_12__value_typeIcNS_3setIcNS_4lessIcEENS_9allocatorIcEEEEEEPNS_11__tree_nodeIS9_PvEElEEEC2B8ue170006ESE_, symObjAddr: 0x8CD0, symBinAddr: 0x100009D4C, symSize: 0x20 }
  - { offsetInCU: 0x163B5, offset: 0x163B5, size: 0x8, addend: 0x0, symName: __ZNKSt3__121__tree_const_iteratorINS_12__value_typeIcNS_3setIcNS_4lessIcEENS_9allocatorIcEEEEEEPNS_11__tree_nodeIS8_PvEElEptB8ue170006Ev, symObjAddr: 0x8CF0, symBinAddr: 0x100009D6C, symSize: 0x2C }
  - { offsetInCU: 0x163DA, offset: 0x163DA, size: 0x8, addend: 0x0, symName: __ZNSt3__114pointer_traitsIPKNS_12__value_typeIcNS_3setIcNS_4lessIcEENS_9allocatorIcEEEEEEE10pointer_toB8ue170006ERS9_, symObjAddr: 0x8D1C, symBinAddr: 0x100009D98, symSize: 0x14 }
  - { offsetInCU: 0x163FD, offset: 0x163FD, size: 0x8, addend: 0x0, symName: __ZNKSt3__16__treeINS_12__value_typeIcNS_3setIcNS_4lessIcEENS_9allocatorIcEEEEEENS_19__map_value_compareIcS8_S4_Lb1EEENS5_IS8_EEE5beginB8ue170006Ev, symObjAddr: 0x8D30, symBinAddr: 0x100009DAC, symSize: 0x34 }
  - { offsetInCU: 0x16422, offset: 0x16422, size: 0x8, addend: 0x0, symName: __ZNKSt3__16__treeINS_12__value_typeIcNS_3setIcNS_4lessIcEENS_9allocatorIcEEEEEENS_19__map_value_compareIcS8_S4_Lb1EEENS5_IS8_EEE12__begin_nodeB8ue170006Ev, symObjAddr: 0x8D64, symBinAddr: 0x100009DE0, symSize: 0x14 }
  - { offsetInCU: 0x16447, offset: 0x16447, size: 0x8, addend: 0x0, symName: __ZNSt3__121__tree_const_iteratorINS_12__value_typeIcNS_3setIcNS_4lessIcEENS_9allocatorIcEEEEEEPNS_11__tree_nodeIS8_PvEElEC1B8ue170006EPNS_15__tree_end_nodeIPNS_16__tree_node_baseISA_EEEE, symObjAddr: 0x8D78, symBinAddr: 0x100009DF4, symSize: 0x34 }
  - { offsetInCU: 0x1647F, offset: 0x1647F, size: 0x8, addend: 0x0, symName: __ZNSt3__121__tree_const_iteratorINS_12__value_typeIcNS_3setIcNS_4lessIcEENS_9allocatorIcEEEEEEPNS_11__tree_nodeIS8_PvEElEC2B8ue170006EPNS_15__tree_end_nodeIPNS_16__tree_node_baseISA_EEEE, symObjAddr: 0x8DAC, symBinAddr: 0x100009E28, symSize: 0x20 }
  - { offsetInCU: 0x164B7, offset: 0x164B7, size: 0x8, addend: 0x0, symName: __ZNKSt3__16__treeINS_12__value_typeIcNS_3setIcNS_4lessIcEENS_9allocatorIcEEEEEENS_19__map_value_compareIcS8_S4_Lb1EEENS5_IS8_EEE3endB8ue170006Ev, symObjAddr: 0x8DCC, symBinAddr: 0x100009E48, symSize: 0x34 }
  - { offsetInCU: 0x164DC, offset: 0x164DC, size: 0x8, addend: 0x0, symName: __ZNSt3__115__tree_iteratorINS_12__value_typeIcNS_3setIcNS_4lessIcEENS_9allocatorIcEEEEEEPNS_11__tree_nodeIS8_PvEElEppB8ue170006Ev, symObjAddr: 0x8E64, symBinAddr: 0x100009EE0, symSize: 0x38 }
  - { offsetInCU: 0x16501, offset: 0x16501, size: 0x8, addend: 0x0, symName: __ZNKSt3__115__tree_iteratorINS_12__value_typeIcNS_3setIcNS_4lessIcEENS_9allocatorIcEEEEEEPNS_11__tree_nodeIS8_PvEElEptB8ue170006Ev, symObjAddr: 0x8E9C, symBinAddr: 0x100009F18, symSize: 0x2C }
  - { offsetInCU: 0x16526, offset: 0x16526, size: 0x8, addend: 0x0, symName: __ZNSt3__114pointer_traitsIPNS_12__value_typeIcNS_3setIcNS_4lessIcEENS_9allocatorIcEEEEEEE10pointer_toB8ue170006ERS8_, symObjAddr: 0x8EC8, symBinAddr: 0x100009F44, symSize: 0x14 }
  - { offsetInCU: 0x16549, offset: 0x16549, size: 0x8, addend: 0x0, symName: __ZNKSt3__115__tree_iteratorINS_12__value_typeIcNS_3setIcNS_4lessIcEENS_9allocatorIcEEEEEEPNS_11__tree_nodeIS8_PvEElE8__get_npB8ue170006Ev, symObjAddr: 0x8EDC, symBinAddr: 0x100009F58, symSize: 0x18 }
  - { offsetInCU: 0x1656E, offset: 0x1656E, size: 0x8, addend: 0x0, symName: __ZNSt3__16vectorI4RuleNS_9allocatorIS1_EEEC2B8ue170006Ev, symObjAddr: 0x8EF4, symBinAddr: 0x100009F70, symSize: 0x44 }
  - { offsetInCU: 0x16597, offset: 0x16597, size: 0x8, addend: 0x0, symName: __ZNSt3__117__compressed_pairIP4RuleNS_9allocatorIS1_EEEC1B8ue170006IDnNS_18__default_init_tagEEEOT_OT0_, symObjAddr: 0x8F38, symBinAddr: 0x100009FB4, symSize: 0x3C }
  - { offsetInCU: 0x165EE, offset: 0x165EE, size: 0x8, addend: 0x0, symName: __ZNSt3__117__compressed_pairIP4RuleNS_9allocatorIS1_EEEC2B8ue170006IDnNS_18__default_init_tagEEEOT_OT0_, symObjAddr: 0x8F74, symBinAddr: 0x100009FF0, symSize: 0x40 }
  - { offsetInCU: 0x16645, offset: 0x16645, size: 0x8, addend: 0x0, symName: __ZNSt3__122__compressed_pair_elemINS_9allocatorI4RuleEELi1ELb1EEC2B8ue170006ENS_18__default_init_tagE, symObjAddr: 0x8FB4, symBinAddr: 0x10000A030, symSize: 0x2C }
  - { offsetInCU: 0x16678, offset: 0x16678, size: 0x8, addend: 0x0, symName: __ZNSt3__19allocatorI4RuleEC2B8ue170006Ev, symObjAddr: 0x8FE0, symBinAddr: 0x10000A05C, symSize: 0x2C }
  - { offsetInCU: 0x166A1, offset: 0x166A1, size: 0x8, addend: 0x0, symName: __ZNSt3__116__non_trivial_ifILb1ENS_9allocatorI4RuleEEEC2B8ue170006Ev, symObjAddr: 0x900C, symBinAddr: 0x10000A088, symSize: 0x14 }
  - { offsetInCU: 0x166CA, offset: 0x166CA, size: 0x8, addend: 0x0, symName: __ZNSt3__112basic_stringIcNS_11char_traitsIcEENS_9allocatorIcEEEC2B8ue170006ILi0EEEPKc, symObjAddr: 0x9020, symBinAddr: 0x10000A09C, symSize: 0x58 }
  - { offsetInCU: 0x1670D, offset: 0x1670D, size: 0x8, addend: 0x0, symName: __ZNSt3__16vectorI4RuleNS_9allocatorIS1_EEE22__construct_one_at_endB8ue170006IJS1_EEEvDpOT_, symObjAddr: 0x9078, symBinAddr: 0x10000A0F4, symSize: 0x98 }
  - { offsetInCU: 0x1675B, offset: 0x1675B, size: 0x8, addend: 0x0, symName: __ZNSt3__16vectorI4RuleNS_9allocatorIS1_EEE21__push_back_slow_pathIS1_EEvOT_, symObjAddr: 0x9110, symBinAddr: 0x10000A18C, symSize: 0xE0 }
  - { offsetInCU: 0x167B7, offset: 0x167B7, size: 0x8, addend: 0x0, symName: __ZNSt3__116allocator_traitsINS_9allocatorI4RuleEEE9constructB8ue170006IS2_JS2_EvEEvRS3_PT_DpOT0_, symObjAddr: 0x91F0, symBinAddr: 0x10000A26C, symSize: 0x34 }
  - { offsetInCU: 0x1680E, offset: 0x1680E, size: 0x8, addend: 0x0, symName: __ZNSt3__19allocatorI4RuleE9constructB8ue170006IS1_JS1_EEEvPT_DpOT0_, symObjAddr: 0x9224, symBinAddr: 0x10000A2A0, symSize: 0x30 }
  - { offsetInCU: 0x16863, offset: 0x16863, size: 0x8, addend: 0x0, symName: __ZNKSt3__16vectorI4RuleNS_9allocatorIS1_EEE11__recommendB8ue170006Em, symObjAddr: 0x9254, symBinAddr: 0x10000A2D0, symSize: 0xB4 }
  - { offsetInCU: 0x168B6, offset: 0x168B6, size: 0x8, addend: 0x0, symName: __ZNSt3__114__split_bufferI4RuleRNS_9allocatorIS1_EEEC1EmmS4_, symObjAddr: 0x9308, symBinAddr: 0x10000A384, symSize: 0x44 }
  - { offsetInCU: 0x1690B, offset: 0x1690B, size: 0x8, addend: 0x0, symName: __ZNSt3__114__split_bufferI4RuleRNS_9allocatorIS1_EEED1Ev, symObjAddr: 0x945C, symBinAddr: 0x10000A4D8, symSize: 0x2C }
  - { offsetInCU: 0x16936, offset: 0x16936, size: 0x8, addend: 0x0, symName: __ZNSt3__114__split_bufferI4RuleRNS_9allocatorIS1_EEEC2EmmS4_, symObjAddr: 0x9508, symBinAddr: 0x10000A584, symSize: 0xD4 }
  - { offsetInCU: 0x169A8, offset: 0x169A8, size: 0x8, addend: 0x0, symName: __ZNSt3__117__compressed_pairIP4RuleRNS_9allocatorIS1_EEEC1B8ue170006IDnS5_EEOT_OT0_, symObjAddr: 0x95DC, symBinAddr: 0x10000A658, symSize: 0x3C }
  - { offsetInCU: 0x169FF, offset: 0x169FF, size: 0x8, addend: 0x0, symName: __ZNSt3__114__split_bufferI4RuleRNS_9allocatorIS1_EEE7__allocB8ue170006Ev, symObjAddr: 0x9618, symBinAddr: 0x10000A694, symSize: 0x28 }
  - { offsetInCU: 0x16A24, offset: 0x16A24, size: 0x8, addend: 0x0, symName: __ZNSt3__114__split_bufferI4RuleRNS_9allocatorIS1_EEE9__end_capB8ue170006Ev, symObjAddr: 0x9640, symBinAddr: 0x10000A6BC, symSize: 0x28 }
  - { offsetInCU: 0x16A49, offset: 0x16A49, size: 0x8, addend: 0x0, symName: __ZNSt3__117__compressed_pairIP4RuleRNS_9allocatorIS1_EEEC2B8ue170006IDnS5_EEOT_OT0_, symObjAddr: 0x9668, symBinAddr: 0x10000A6E4, symSize: 0x48 }
  - { offsetInCU: 0x16AA0, offset: 0x16AA0, size: 0x8, addend: 0x0, symName: __ZNSt3__122__compressed_pair_elemIRNS_9allocatorI4RuleEELi1ELb0EEC2B8ue170006IS4_vEEOT_, symObjAddr: 0x96B0, symBinAddr: 0x10000A72C, symSize: 0x20 }
  - { offsetInCU: 0x16AE1, offset: 0x16AE1, size: 0x8, addend: 0x0, symName: __ZNSt3__117__compressed_pairIP4RuleRNS_9allocatorIS1_EEE6secondB8ue170006Ev, symObjAddr: 0x96D0, symBinAddr: 0x10000A74C, symSize: 0x28 }
  - { offsetInCU: 0x16B06, offset: 0x16B06, size: 0x8, addend: 0x0, symName: __ZNSt3__122__compressed_pair_elemIRNS_9allocatorI4RuleEELi1ELb0EE5__getB8ue170006Ev, symObjAddr: 0x96F8, symBinAddr: 0x10000A774, symSize: 0x18 }
  - { offsetInCU: 0x16B2B, offset: 0x16B2B, size: 0x8, addend: 0x0, symName: __ZNSt3__117__compressed_pairIP4RuleRNS_9allocatorIS1_EEE5firstB8ue170006Ev, symObjAddr: 0x9710, symBinAddr: 0x10000A78C, symSize: 0x24 }
  - { offsetInCU: 0x16B50, offset: 0x16B50, size: 0x8, addend: 0x0, symName: __ZNSt3__129_AllocatorDestroyRangeReverseINS_9allocatorI4RuleEENS_16reverse_iteratorIPS2_EEEC1B8ue170006ERS3_RS6_S9_, symObjAddr: 0x98E0, symBinAddr: 0x10000A95C, symSize: 0x44 }
  - { offsetInCU: 0x16BA6, offset: 0x16BA6, size: 0x8, addend: 0x0, symName: __ZNSt3__116allocator_traitsINS_9allocatorI4RuleEEE9constructB8ue170006IS2_JRKS2_EvEEvRS3_PT_DpOT0_, symObjAddr: 0x9924, symBinAddr: 0x10000A9A0, symSize: 0x34 }
  - { offsetInCU: 0x16BFD, offset: 0x16BFD, size: 0x8, addend: 0x0, symName: __ZNSt3__128__exception_guard_exceptionsINS_29_AllocatorDestroyRangeReverseINS_9allocatorI4RuleEENS_16reverse_iteratorIPS3_EEEEE10__completeB8ue170006Ev, symObjAddr: 0x9958, symBinAddr: 0x10000A9D4, symSize: 0x1C }
  - { offsetInCU: 0x16C22, offset: 0x16C22, size: 0x8, addend: 0x0, symName: __ZNSt3__128__exception_guard_exceptionsINS_29_AllocatorDestroyRangeReverseINS_9allocatorI4RuleEENS_16reverse_iteratorIPS3_EEEEED1B8ue170006Ev, symObjAddr: 0x9974, symBinAddr: 0x10000A9F0, symSize: 0x2C }
  - { offsetInCU: 0x16C4B, offset: 0x16C4B, size: 0x8, addend: 0x0, symName: __ZNSt3__128__exception_guard_exceptionsINS_29_AllocatorDestroyRangeReverseINS_9allocatorI4RuleEENS_16reverse_iteratorIPS3_EEEEEC1B8ue170006ES8_, symObjAddr: 0x99A0, symBinAddr: 0x10000AA1C, symSize: 0x34 }
  - { offsetInCU: 0x16C83, offset: 0x16C83, size: 0x8, addend: 0x0, symName: __ZNSt3__128__exception_guard_exceptionsINS_29_AllocatorDestroyRangeReverseINS_9allocatorI4RuleEENS_16reverse_iteratorIPS3_EEEEEC2B8ue170006ES8_, symObjAddr: 0x99D4, symBinAddr: 0x10000AA50, symSize: 0x30 }
  - { offsetInCU: 0x16CBB, offset: 0x16CBB, size: 0x8, addend: 0x0, symName: __ZNSt3__129_AllocatorDestroyRangeReverseINS_9allocatorI4RuleEENS_16reverse_iteratorIPS2_EEEC2B8ue170006ERS3_RS6_S9_, symObjAddr: 0x9A04, symBinAddr: 0x10000AA80, symSize: 0x38 }
  - { offsetInCU: 0x16D11, offset: 0x16D11, size: 0x8, addend: 0x0, symName: __ZNSt3__19allocatorI4RuleE9constructB8ue170006IS1_JRKS1_EEEvPT_DpOT0_, symObjAddr: 0x9A3C, symBinAddr: 0x10000AAB8, symSize: 0x30 }
  - { offsetInCU: 0x16D66, offset: 0x16D66, size: 0x8, addend: 0x0, symName: __ZNSt3__128__exception_guard_exceptionsINS_29_AllocatorDestroyRangeReverseINS_9allocatorI4RuleEENS_16reverse_iteratorIPS3_EEEEED2B8ue170006Ev, symObjAddr: 0x9A6C, symBinAddr: 0x10000AAE8, symSize: 0x48 }
  - { offsetInCU: 0x16D8F, offset: 0x16D8F, size: 0x8, addend: 0x0, symName: __ZNKSt3__129_AllocatorDestroyRangeReverseINS_9allocatorI4RuleEENS_16reverse_iteratorIPS2_EEEclB8ue170006Ev, symObjAddr: 0x9AB4, symBinAddr: 0x10000AB30, symSize: 0xB4 }
  - { offsetInCU: 0x16DB5, offset: 0x16DB5, size: 0x8, addend: 0x0, symName: __ZNSt3__116reverse_iteratorINS0_IP4RuleEEEC1B8ue170006ES3_, symObjAddr: 0x9BD8, symBinAddr: 0x10000AC54, symSize: 0x3C }
  - { offsetInCU: 0x16DEC, offset: 0x16DEC, size: 0x8, addend: 0x0, symName: __ZNSt3__116reverse_iteratorINS0_IP4RuleEEEppB8ue170006Ev, symObjAddr: 0x9C98, symBinAddr: 0x10000AD14, symSize: 0x30 }
  - { offsetInCU: 0x16E11, offset: 0x16E11, size: 0x8, addend: 0x0, symName: __ZNKSt3__116reverse_iteratorINS0_IP4RuleEEE4baseB8ue170006Ev, symObjAddr: 0x9CC8, symBinAddr: 0x10000AD44, symSize: 0x24 }
  - { offsetInCU: 0x16E3B, offset: 0x16E3B, size: 0x8, addend: 0x0, symName: __ZNSt3__119__to_address_helperINS_16reverse_iteratorINS1_IP4RuleEEEEvE6__callB8ue170006ERKS5_, symObjAddr: 0x9CEC, symBinAddr: 0x10000AD68, symSize: 0x4C }
  - { offsetInCU: 0x16E5E, offset: 0x16E5E, size: 0x8, addend: 0x0, symName: __ZNKSt3__116reverse_iteratorINS0_IP4RuleEEEptB8ue170006Ev, symObjAddr: 0x9D38, symBinAddr: 0x10000ADB4, symSize: 0x24 }
  - { offsetInCU: 0x16E83, offset: 0x16E83, size: 0x8, addend: 0x0, symName: __ZNKSt3__116reverse_iteratorINS0_IP4RuleEEEdeB8ue170006Ev, symObjAddr: 0x9D5C, symBinAddr: 0x10000ADD8, symSize: 0x34 }
  - { offsetInCU: 0x16EB6, offset: 0x16EB6, size: 0x8, addend: 0x0, symName: __ZNSt3__116reverse_iteratorIP4RuleEmmB8ue170006Ev, symObjAddr: 0x9D90, symBinAddr: 0x10000AE0C, symSize: 0x20 }
  - { offsetInCU: 0x16EDB, offset: 0x16EDB, size: 0x8, addend: 0x0, symName: __ZNSt3__116reverse_iteratorINS0_IP4RuleEEEC2B8ue170006ES3_, symObjAddr: 0x9DB0, symBinAddr: 0x10000AE2C, symSize: 0x2C }
  - { offsetInCU: 0x16F12, offset: 0x16F12, size: 0x8, addend: 0x0, symName: __ZNSt3__114__split_bufferI4RuleRNS_9allocatorIS1_EEED2Ev, symObjAddr: 0x9DDC, symBinAddr: 0x10000AE58, symSize: 0x80 }
  - { offsetInCU: 0x16F3D, offset: 0x16F3D, size: 0x8, addend: 0x0, symName: __ZNSt3__114__split_bufferI4RuleRNS_9allocatorIS1_EEE5clearB8ue170006Ev, symObjAddr: 0x9E5C, symBinAddr: 0x10000AED8, symSize: 0x28 }
  - { offsetInCU: 0x16F62, offset: 0x16F62, size: 0x8, addend: 0x0, symName: __ZNKSt3__114__split_bufferI4RuleRNS_9allocatorIS1_EEE8capacityB8ue170006Ev, symObjAddr: 0x9E84, symBinAddr: 0x10000AF00, symSize: 0x40 }
  - { offsetInCU: 0x16F87, offset: 0x16F87, size: 0x8, addend: 0x0, symName: __ZNSt3__114__split_bufferI4RuleRNS_9allocatorIS1_EEE17__destruct_at_endB8ue170006EPS1_, symObjAddr: 0x9EC4, symBinAddr: 0x10000AF40, symSize: 0x2C }
  - { offsetInCU: 0x16FBA, offset: 0x16FBA, size: 0x8, addend: 0x0, symName: __ZNSt3__114__split_bufferI4RuleRNS_9allocatorIS1_EEE17__destruct_at_endB8ue170006EPS1_NS_17integral_constantIbLb0EEE, symObjAddr: 0x9EF0, symBinAddr: 0x10000AF6C, symSize: 0x94 }
  - { offsetInCU: 0x16FF8, offset: 0x16FF8, size: 0x8, addend: 0x0, symName: __ZNKSt3__114__split_bufferI4RuleRNS_9allocatorIS1_EEE9__end_capB8ue170006Ev, symObjAddr: 0x9F84, symBinAddr: 0x10000B000, symSize: 0x28 }
  - { offsetInCU: 0x1701D, offset: 0x1701D, size: 0x8, addend: 0x0, symName: __ZNKSt3__117__compressed_pairIP4RuleRNS_9allocatorIS1_EEE5firstB8ue170006Ev, symObjAddr: 0x9FAC, symBinAddr: 0x10000B028, symSize: 0x24 }
...
